0808be10 t .LC0
0808c868 t .LC0
0808bd10 t .LC0
0808d678 t .LC0
0808bd50 t .LC0
0808aaa0 t .LC0
0808bdb0 t .LC0
0808d610 t .LC0
0808b070 t .LC0
0808cef8 t .LC0
0808c1c0 t .LC0
0808d008 t .LC0
0808cb00 t .LC0
0808c8f0 t .LC0
0808d238 t .LC0
0808af50 t .LC0
08094910 t .LC0
0808c238 t .LC0
0808cc10 t .LC0
0808a670 t .LC0
080954f0 t .LC0
0808d490 t .LC0
0808d888 t .LC0
0808d760 t .LC0
0808a600 t .LC0
0808d370 t .LC0
0808c708 t .LC0
0808c570 t .LC0
0808d4c0 t .LC0
0808cc70 t .LC0
0808ccb0 t .LC1
0808c890 t .LC1
0808bd18 t .LC1
0808d67c t .LC1
0808cc1c t .LC1
0808aac4 t .LC1
0808d624 t .LC1
0808be50 t .LC1
0808d4e0 t .LC1
0808b074 t .LC1
0808cf38 t .LC1
0808cb40 t .LC1
0808d048 t .LC1
0808c954 t .LC1
0808d278 t .LC1
080938a0 t .LC1
0808a684 t .LC1
0808c278 t .LC1
0808d890 t .LC1
0808a60c t .LC1
0808c748 t .LC1
08094a14 t .LC1
0808c5b0 t .LC1
0808b0c4 t .LC10
0808c440 t .LC10
0808cd18 t .LC10
0808a81c t .LC10
0808d9dc t .LC10
080938e0 t .LC10
0808b7c4 t .LC100
0808b7dc t .LC101
0808b7f0 t .LC102
0808b808 t .LC103
0808c498 t .LC11
0808a850 t .LC11
0808d9e4 t .LC11
0808b0c8 t .LC11
0808cd3c t .LC11
080938e8 t .LC11
0808b0cc t .LC12
0808cd60 t .LC12
080938f0 t .LC12
0808d9e8 t .LC12
0808a860 t .LC12
0808c4cc t .LC12
080968d4 t .LC125
080968f0 t .LC126
0809694c t .LC127
0808b0d0 t .LC13
0808cd78 t .LC13
080938f8 t .LC13
0808a870 t .LC13
0808d9fc t .LC13
0808da20 t .LC14
0808cd90 t .LC14
0808a898 t .LC14
0808b0d4 t .LC14
0808da70 t .LC15
0808b0d8 t .LC15
0808cda0 t .LC15
0808a8ac t .LC15
0808cdb4 t .LC16
0808b0dc t .LC16
0808da98 t .LC16
0808a8b8 t .LC16
0808daa8 t .LC17
0808b0e0 t .LC17
0808a8c4 t .LC17
0808b0e4 t .LC18
0808dabc t .LC18
0808a8e0 t .LC18
0808a90c t .LC19
0808dae0 t .LC19
0808b0f0 t .LC19
08094a1c t .LC2
0808d680 t .LC2
0808c600 t .LC2
0808be7c t .LC2
0808ccc4 t .LC2
0808c7a4 t .LC2
0808cc2c t .LC2
0808aae4 t .LC2
0808c2b0 t .LC2
0808a6d0 t .LC2
0808c990 t .LC2
0808d8b0 t .LC2
0808d060 t .LC2
0808d294 t .LC2
0808b078 t .LC2
0808d50c t .LC2
080938a4 t .LC2
0808a918 t .LC20
0808b0fc t .LC20
0808db00 t .LC20
0808b108 t .LC21
0808a920 t .LC21
0808db20 t .LC21
0808a940 t .LC22
0808b114 t .LC22
0808db34 t .LC22
0808db50 t .LC23
0808a958 t .LC23
0808b120 t .LC23
0808db5c t .LC24
0808a970 t .LC24
0808b12c t .LC24
0808a988 t .LC25
0808db74 t .LC25
0808b140 t .LC25
0808b150 t .LC26
0808db94 t .LC26
0808a9a8 t .LC26
0808a9b8 t .LC27
0808b164 t .LC27
0808dbbc t .LC27
0808b16c t .LC28
0808a9c4 t .LC28
0808dbec t .LC28
0808dc1c t .LC29
0808b178 t .LC29
0808aaf8 t .LC3
0808beac t .LC3
0808cc38 t .LC3
0808d688 t .LC3
0808c2dc t .LC3
0808ccd8 t .LC3
0808d534 t .LC3
0808d8fc t .LC3
0808a71c t .LC3
0808d078 t .LC3
0808d2a8 t .LC3
0808b080 t .LC3
0808c628 t .LC3
080938a8 t .LC3
0808b184 t .LC30
0808dc4c t .LC30
0808b190 t .LC31
0808dc7c t .LC31
0808b19c t .LC32
0808dcac t .LC32
0808b1ac t .LC33
0808dcdc t .LC33
0808b1c0 t .LC34
0808dd0c t .LC34
0808b1d8 t .LC35
0808dd10 t .LC35
0808b1e8 t .LC36
0808dd40 t .LC36
0808b1fc t .LC37
0808dd70 t .LC37
0808b210 t .LC38
0808dda0 t .LC38
0808b214 t .LC39
0808ddd0 t .LC39
0808d690 t .LC4
0808c32c t .LC4
080938b0 t .LC4
0808d2c4 t .LC4
0808bef8 t .LC4
0808d574 t .LC4
0808d92c t .LC4
0808d0d4 t .LC4
0808ccdc t .LC4
0808ab08 t .LC4
0808b088 t .LC4
0808a768 t .LC4
0808b228 t .LC40
0808ddf4 t .LC40
0808de18 t .LC41
0808b23c t .LC41
0808de3c t .LC42
0808b240 t .LC42
0808de60 t .LC43
0808b258 t .LC43
0808de68 t .LC44
0808b264 t .LC44
0808b278 t .LC45
0808de84 t .LC45
0808deac t .LC46
0808b2a4 t .LC46
0808b2d0 t .LC47
0808decc t .LC47
0808b2ec t .LC48
0808dee8 t .LC48
0808df08 t .LC49
0808b30c t .LC49
0808cce0 t .LC5
0808c354 t .LC5
080938b8 t .LC5
0808d0e8 t .LC5
0808d698 t .LC5
0808d5b4 t .LC5
0808d95c t .LC5
0808a79c t .LC5
0808ab44 t .LC5
0808b0a4 t .LC5
0808df30 t .LC50
0808b324 t .LC50
0808df50 t .LC51
0808b33c t .LC51
0808df74 t .LC52
0808b354 t .LC52
0808df80 t .LC53
0808b370 t .LC53
0808df98 t .LC54
0808b394 t .LC54
0808b3a8 t .LC55
0808dfd8 t .LC55
0808e008 t .LC56
0808b3c0 t .LC56
0808e028 t .LC57
0808b3d8 t .LC57
0808e02c t .LC58
0808b3f0 t .LC58
0808e030 t .LC59
0808b404 t .LC59
0808cce8 t .LC6
0808d97c t .LC6
0808d134 t .LC6
0808c380 t .LC6
0808ab78 t .LC6
080938c0 t .LC6
0808b0ac t .LC6
0808a7c0 t .LC6
0808b41c t .LC60
0808e034 t .LC60
0808e038 t .LC61
0808b430 t .LC61
0808b444 t .LC62
0808b464 t .LC63
0808b484 t .LC64
0808b49c t .LC65
0808b4a8 t .LC66
0808b4c0 t .LC67
0808b4d8 t .LC68
0808b500 t .LC69
0808d184 t .LC7
080938c8 t .LC7
0808d99c t .LC7
0808a7d0 t .LC7
0808c3b0 t .LC7
0808b0b4 t .LC7
0808abac t .LC7
0808ccf4 t .LC7
0808b518 t .LC70
0808b53c t .LC71
0808b550 t .LC72
0808b564 t .LC73
0808b570 t .LC74
0808b58c t .LC75
0808b5a8 t .LC76
0808b5c0 t .LC77
0808b5d0 t .LC78
0808b5e8 t .LC79
0808cd00 t .LC8
0808b0bc t .LC8
0808a7e0 t .LC8
0808d9c0 t .LC8
0808abb8 t .LC8
080938d0 t .LC8
0808c3cc t .LC8
0808b604 t .LC80
0808b618 t .LC81
0808b630 t .LC82
0808b640 t .LC83
0808b658 t .LC84
0808b670 t .LC85
0808b68c t .LC86
0808b6a4 t .LC87
0808b6b8 t .LC88
0808b6d4 t .LC89
0808b0c0 t .LC9
0808c3f8 t .LC9
0808d9d4 t .LC9
0808a800 t .LC9
0808cd0c t .LC9
080938d8 t .LC9
0808b6f0 t .LC90
0808b70c t .LC91
0808b728 t .LC92
0808b73c t .LC93
0808b750 t .LC94
0808b764 t .LC95
0808b77c t .LC96
0808b78c t .LC97
0808b798 t .LC98
0808b7ac t .LC99
08088f6c T __adddf3
08089940 T __addsf3
08089790 T __aeabi_cdcmpeq
08089790 T __aeabi_cdcmple
08089780 T __aeabi_cdrcmple
08089e68 T __aeabi_cfcmpeq
08089e68 T __aeabi_cfcmple
08089e60 T __aeabi_cfrcmple
08089894 T __aeabi_d2f
08089804 T __aeabi_d2iz
08089fb8 T __aeabi_d2lz
08089854 T __aeabi_d2uiz
0808a034 T __aeabi_d2ulz
08088f6c T __aeabi_dadd
080897a0 T __aeabi_dcmpeq
080897dc T __aeabi_dcmpge
080897f0 T __aeabi_dcmpgt
080897c8 T __aeabi_dcmple
080897b4 T __aeabi_dcmplt
08089524 T __aeabi_ddiv
080892d0 T __aeabi_dmul
08088f60 T __aeabi_drsub
08088f68 T __aeabi_dsub
08089228 T __aeabi_f2d
08089edc T __aeabi_f2iz
08089f90 T __aeabi_f2lz
08089fe8 T __aeabi_f2ulz
08089940 T __aeabi_fadd
08089e78 T __aeabi_fcmpeq
08089eb4 T __aeabi_fcmpge
08089ec8 T __aeabi_fcmpgt
08089ea0 T __aeabi_fcmple
08089e8c T __aeabi_fcmplt
08089cb8 T __aeabi_fdiv
08089b50 T __aeabi_fmul
08089934 T __aeabi_frsub
0808993c T __aeabi_fsub
08089204 T __aeabi_i2d
08089aa8 T __aeabi_i2f
0808a0dc W __aeabi_idiv0
08089274 T __aeabi_l2d
08089ad4 T __aeabi_l2f
0808a0dc W __aeabi_ldiv0
08089f28 T __aeabi_ldivmod
080891e4 T __aeabi_ui2d
08089aa0 T __aeabi_ui2f
08089264 T __aeabi_ul2d
08089ac4 T __aeabi_ul2f
08089f60 T __aeabi_uldivmod
08089704 T __cmpdf2
08089e00 T __cmpsf2
080886a8 T __d2b
08035a94 t __disable_irq
0802e090 t __disable_irq
08089524 T __divdf3
0808a0e0 T __divdi3
08089cb8 T __divsf3
0802e0b0 t __DSB
0802d914 t __DSB
08035a84 t __enable_irq
08089704 T __eqdf2
08089e00 T __eqsf2
08084f88 T __errno
08089228 T __extendsfdf2
20002889 D __fdlib_version
08089fb8 T __fixdfdi
08089804 T __fixdfsi
08089f90 T __fixsfdi
08089edc T __fixsfsi
0808a034 T __fixunsdfdi
08089854 T __fixunsdfsi
08089fe8 T __fixunssfdi
08089274 T __floatdidf
08089ad4 T __floatdisf
08089204 T __floatsidf
08089aa8 T __floatsisf
08089264 T __floatundidf
08089ac4 T __floatundisf
080891e4 T __floatunsidf
08089aa0 T __floatunsisf
080801d0 T __fpclassifyd
080896f4 T __gedf2
08089df0 T __gesf2
0803b7f4 T __get_PRIMASK
0808a07c T __gnu_ldivmod_helper
0808a0ac T __gnu_uldivmod_helper
080896f4 T __gtdf2
08089df0 T __gtsf2
0808823c T __hi0bits
080882d8 T __i2b
080810f8 T __ieee754_acos
080815b0 T __ieee754_asin
08081a10 T __ieee754_atan2
08081bc8 T __ieee754_cosh
08081d10 T __ieee754_exp
08081ffc T __ieee754_fmod
08082248 T __ieee754_log
08082618 T __ieee754_log10
08082730 T __ieee754_pow
080831d0 T __ieee754_rem_pio2
080835f4 T __ieee754_remainder
08083750 T __ieee754_sinh
080838d8 T __ieee754_sqrt
0802d904 t __ISB
08080228 T __isinfd
08080248 T __isnand
08083a68 T __kernel_cos
08083cb0 T __kernel_rem_pio2
080844b8 T __kernel_sin
08084628 T __kernel_tan
080896fc T __ledf2
08089df8 T __lesf2
0808827c T __lo0bits
080884cc T __lshift
080896fc T __ltdf2
08089df8 T __ltsf2
20002cf4 D __malloc_av_
2000ccb8 B __malloc_current_mallinfo
0808814c T __malloc_lock
2000ccb0 B __malloc_max_sbrked_mem
2000ccac B __malloc_max_total_mem
20003100 D __malloc_sbrk_base
2000ccb4 B __malloc_top_pad
200030fc D __malloc_trim_threshold
08088150 T __malloc_unlock
0808857c T __mcmp
080885c4 T __mdiff
0809acd0 T __mprec_bigtens
0809abf8 T __mprec_tens
080892d0 T __muldf3
08089b50 T __mulsf3
080881b8 T __multadd
080882ec T __multiply
08089704 T __nedf2
08089e00 T __nesf2
08035aa4 t __NOP
08041210 t __NOP
0808842c T __pow5mult
0807dd2c t __QADD16
0807de84 t __QASX
0807df28 t __QSAX
0807ddd8 t __QSUB16
0803b814 T __set_PRIMASK
0807dd88 t __SHADD16
0807ded8 t __SHASX
0807df7c t __SHSAX
0807de34 t __SHSUB16
08080440 T __signbitd
0807e044 t __SMUAD
0807e008 t __SMUADX
0807e078 t __SMUSD
0807dfcc t __SMUSDX
0807dcc8 t __SSAT
080887d0 T __ssprint_r
08088f68 T __subdf3
0808993c T __subsf3
08089894 T __truncdfsf2
0808a38c T __udivdi3
00000000 a __use_no_semihosting_swi
08036810 t __WFI
0802e0a0 t __WFI
08088154 T _Balloc
080881a4 T _Bfree
080888d4 T _calloc_r
08086d08 T _dtoa_r
080889d0 T _free_r
20002cb8 D _impure_ptr
08084fd8 T _localeconv_r
08087bac T _malloc_r
08088934 T _malloc_trim_r
08088b80 T _realloc_r
080ab748 T _sbrk
08088750 T _sbrk_r
08084f94 T _setlocale_r
         U _start
080856e0 T _svfprintf_r
08085650 T _vsnprintf_r
08020ab4 T _Z10ClrStartup12CLR_SETTINGS
0802c4f4 T _Z10Events_Getj
0802c490 T _Z10Events_Setj
08038450 T _Z10hal_printfPKcz
0802e2d0 T _Z10High_Powerv
0803f248 T _Z10I2C_CancelP15I2C_HAL_XACTIONb
08078ac4 T _Z10ISR_sdProcP38CLR_RT_HeapBlock_NativeEventDispatcher
08075fe4 T _Z10owReadBytei
08075ec4 T _Z10owTouchBitii
08042594 T _Z10Piezo_Tonejj
08041ee8 T _Z10RCC_Configv
08034d14 T _Z10RT_Disposev
0803967c T _Z10USART_ReadiPcj
08041e84 T _Z11GPIO_ConfigRK17SPI_CONFIGURATION
0803ff48 T _Z11GPIO_GetPinj
08075d24 T _Z11hal_dac_sett
080384a0 T _Z11hal_fprintfiPKcz
08038dbc T _Z11hal_stricmpPKcS0_
08038478 T _Z11hal_vprintfPKcSt9__va_list
0803f230 T _Z11I2C_EnqueueP15I2C_HAL_XACTION
08041f04 T _Z11NVIC_Configv
080764e0 T _Z11owSerialNumiPhi
08075f6c T _Z11owTouchByteii
08075fbc T _Z11owWriteByteii
0803db5c T _Z11TimeHandlerPv
080396bc T _Z11USART_Flushi
0802f894 T _Z11USART_pausev
0803965c T _Z11USART_WriteiPKcj
080641f0 T _Z12DigitalToHexh
08032410 T _Z12GetCPUSerialPht
0803ff6c T _Z12GPIO_GetPortj
0802e40c T _Z12HAL_AssertExv
08075cd0 T _Z12hal_dac_initv
08038c8c T _Z12hal_snprintfPcjPKcz
08038ce0 T _Z12hal_strcpy_sPcjPKc
08038d84 T _Z12hal_strlen_sPKc
080384cc T _Z12hal_vfprintfiPKcSt9__va_list
0803f090 T _Z12HeapLocationRPhRj
0802c75c T _Z12LCD_GetWidthv
08035d60 T _Z12LowLevelInitv
080760f0 T _Z12owRaiseErroriiPKc
08075e6c T _Z12owTouchReseti
08035c70 T _Z12SOCKETS_ReadiPcj
0802f900 T _Z12USART_reinitv
0802e0ec T _Z12WakeLockInitv
0803e3d8 T _Z13AD_ADChannelsv
0803df8c T _Z13AD_Initialize14ANALOG_CHANNELi
0803de30 T _Z13BackLight_Setj
08075dc8 T _Z13DA_DAChannelsv
08075d58 T _Z13DA_Initialize10DA_CHANNELi
0803df20 T _Z13FS_AddVolumesv
0803df2c T _Z13FS_Initializev
08038d2c T _Z13hal_strncpy_sPcjPKcj
08038cbc T _Z13hal_vsnprintfPcjPKcSt9__va_list
0802ee68 T _Z13ISR_RTC_ALARMPv
0802c76c T _Z13LCD_GetHeightv
0806f3c0 T _Z13LinkArraySizev
0802d864 T _Z13MFUpdate_Openi
08034b6c T _Z13Radio_HandlerjjPv
08035c8c T _Z13SOCKETS_Flushi
08035c54 T _Z13SOCKETS_WriteiPKcj
0803a908 T _Z13USB_ConfigureiPK25USB_DYNAMIC_CONFIGURATION
0806421c T _Z14ByteArrayToHexPhii
0803de64 T _Z14Charger_StatusRj
08046a68 W _Z14CLR_DataFromTkj
08049df0 T _Z14CLR_SoftRebootv
08046aa0 W _Z14CLR_TkFromType14CLR_TABLESENUMj
08046a84 W _Z14CLR_TypeFromTkj
0802e418 T _Z14CPU_Initializev
0802e7f4 T _Z14CPU_Radio_SendhPvt
080412dc T _Z14CPU_SPI_Enable17SPI_CONFIGURATION
0803ffd8 T _Z14GPIO_GetNumberP12GPIO_TypeDeft
080390a4 T _Z14HAL_Initializev
0803f210 T _Z14I2C_Initializev
0803f684 T _Z14Ink_Initializev
0802c728 T _Z14LCD_Initializev
0802cbe0 T _Z14MAC_InitializeP15MACEventHandlerhhhPv
08033608 T _Z14rf231_read_regh
08054bec T _Z14SetResult_INT8R17CLR_RT_StackFramea
08041de4 T _Z14SPI_StructInitRK17SPI_CONFIGURATION
08030270 T _Z14USART2_HandlerPv
0803a8f0 T _Z14USB_Initializei
0803a938 T _Z14USB_OpenStreamiii
0803ac88 T _Z14VirtTimer_Stoph
0803e9c8 T _Z15AD_StopSamplingv
0803e224 T _Z15AD_Uninitialize14ANALOG_CHANNEL
0803e274 T _Z15AD_Uninitializev
0803deb4 T _Z15Battery_VoltageRi
0802af88 T _Z15beaconSchedulerPv
08026bc0 T _Z15CLR_SafeSprintfRPcRjPKcz
08061ed4 T _Z15CompareResourcePKvS0_
0802e9dc T _Z15CPU_Radio_Sleephh
080414ac T _Z15CPU_SPI_GetPinsjRjS_S_
0802a98c T _Z15CPU_SystemClockt
0802aa44 T _Z15CPU_TicksToTimeyt
08075d80 T _Z15DA_Uninitialize10DA_CHANNEL
0803ffb0 T _Z15GPIO_GetPortPtrj
0803ee5c T _Z15hal_adc_getDataPthh
08034bc0 T _Z15InitializeTimerv
08034ec8 T _Z15ISR_RT_DebuggerPv
0802cc74 T _Z15MAC_ReconfigurePv
0807a74c T _Z15ManagedCallbacktt
0802d87c T _Z15MFUpdate_Createi
08079d80 T _Z15PWM_PWMChannelsv
08033708 T _Z15rf231_write_reghh
08054c0c T _Z15SetResult_INT32R17CLR_RT_StackFramei
08054c28 T _Z15SetResult_UINT8R17CLR_RT_StackFrameh
08035a60 T _Z15ShutdownDriversv
08038280 T _Z15Time_GetUtcTimev
08038250 T _Z15Time_Initializev
0803829c T _Z15Time_SetUtcTimexb
0803a954 T _Z15USB_CloseStreami
0803a9bc T _Z15USB_DiscardDataij
0803ac20 T _Z15VirtTimer_Starth
08038210 T _Z15Watchdog_EnablejPFvPvES_
0803c0f8 T _Z16ClearMsgContentsP7MessageI19IEEE802_15_4_HeaderLt95E19IEEE802_15_4_Footer21IEEE802_15_4_MetadataE
08026b58 T _Z16CLR_SafeSprintfVRPcRjPKcSt9__va_list
08046c34 W _Z16CLR_TkFromStreamRPKh
080415cc T _Z16CPU_SPI_ReadByteRK17SPI_CONFIGURATION
0802c6e8 T _Z16FreeManagedEventhhtj
08029710 T _Z16GetHalSystemInfoR13HalSystemInfo
080400e4 T _Z16GPIO_GetCallBackj
0803ff88 T _Z16GPIO_GetExtiLinej
08039144 T _Z16HAL_Uninitializev
0803f220 T _Z16I2C_Uninitializev
0803f698 T _Z16Ink_Uninitializev
0806f40c T _Z16InterruptRecordsv
0802c738 T _Z16LCD_Uninitializev
0806f3d4 T _Z16LinkMRUArraySizev
0802d1f8 T _Z16MAC_UnInitializev
0802d8e8 T _Z16MFUpdate_InstalliPhi
0806f3e8 T _Z16PayloadArraySizev
0804257c T _Z16Piezo_Initializev
08071994 T _Z16PostManagedEventhhtj
08034b4c T _Z16Radio_Handler_LRjjPv
08054ca0 T _Z16SetResult_doubleR17CLR_RT_StackFramed
08054c48 T _Z16SetResult_UINT16R17CLR_RT_StackFramet
08054c68 T _Z16SetResult_UINT32R17CLR_RT_StackFramej
08054c84 T _Z16SetResult_UINT64R17CLR_RT_StackFramey
0803836c T _Z16Time_DaysInMonthiiPi
080395f0 T _Z16USART_Initializeiiiiii
0803a920 T _Z16USB_Uninitializei
0803acf0 T _Z16VirtTimer_Changehjjjh
0803822c T _Z16Watchdog_Disablev
08049e18 T _Z17CLR_DebuggerBreakv
0802e424 T _Z17CPU_JTAG_Attachedv
08041510 T _Z17CPU_SPI_WriteByteRK17SPI_CONFIGURATIONh
0802ff94 T _Z17CPU_USART_GetPinsiRjS_S_S_
08029338 T _Z17DebuggerPort_ReadiPcj
0802c454 T _Z17Events_Initializev
0802c548 T _Z17Events_MaskedReadj
08040294 T _Z17GPIO_ConfigurePinP12GPIO_TypeDeft16GPIOMode_TypeDef17GPIOSpeed_TypeDef
08040050 T _Z17GPIO_GetIRQNumberj
0806f3fc T _Z17InlineBufferCountv
0802cd90 T _Z17MAC_GetNextPacketPPh
0802d8cc T _Z17MFUpdate_ValidateiPhi
0803dba4 T _Z17SetCompareHandlerPv
080382cc T _Z17Time_GetLocalTimev
0803831c T _Z17Time_ToSystemTimexP10SYSTEMTIME
08038268 T _Z17Time_Uninitializev
08038238 T _Z17Watchdog_ResetCpuv
0803de94 T _Z18Battery_Initializev
0802910c T _Z18Buttons_Initializev
0803de44 T _Z18Charger_Initializev
08046b7c W _Z18CLR_UncompressDataRPKh
080405a4 T _Z18CPU_GPIO_PinIsBusyj
0802e914 T _Z18CPU_Radio_TurnOnRxh
08041220 T _Z18CPU_SPI_Initializev
08041500 T _Z18CPU_SPI_PortsCountv
0802a9e8 T _Z18CPU_TicksPerSecondt
0802aee4 T _Z18csmaReceiveHandlerPvt
0802af0c T _Z18csmaSendAckHandlerPvt11NetOpStatush
080428c4 T _Z18CustomHeapLocationRPhRj
080293a8 T _Z18DebuggerPort_Flushi
08029250 T _Z18DebuggerPort_WriteiPKcj
0803df64 T _Z18Gesture_Initializev
080385bc T _Z18hal_snprintf_floatPcjPKcf
08035060 T _Z18ISR_REALTIME_TIMERPv
0802c78c T _Z18LCD_GetOrientationv
0802d8b0 T _Z18MFUpdate_AddPacketiiPhiS_i
08035c04 T _Z18Network_Initializev
08030468 T _Z18OMACReceiveHandlerPvt
080304e8 T _Z18OMACSendAckHandlerPvt11NetOpStatush
08042588 T _Z18Piezo_Uninitializev
08042650 T _Z18SimpleHeap_ReleasePv
08035c24 T _Z18SOCKETS_Initializei
08035ccc T _Z18SOCKETS_IsUsingSsli
0802754c T _Z18SUPPORT_ComputeCRCPKvij
0803969c T _Z18USART_Managed_ReadiPcj
08039630 T _Z18USART_Uninitializei
0803adb0 T _Z18VirtTimer_GetTicksh
0803aba0 T _Z18VirtTimer_SetTimerhjjjjPFvPvEh
08079dac T _Z18VirtualKey_GetPinsj
0803e3e8 T _Z19AD_GetPinForChannel14ANALOG_CHANNEL
0803ded4 T _Z19Battery_TemperatureRi
08040248 T _Z19CPU_GPIO_Attributesj
080402cc T _Z19CPU_GPIO_DisablePinj13GPIO_RESISTORj13GPIO_ALT_MODE
080406dc T _Z19CPU_GPIO_GetPinsMapPhj
080401a4 T _Z19CPU_GPIO_Initializev
080405f4 T _Z19CPU_GPIO_ReservePinjj
08035ce4 T _Z19CPU_INTC_Initializev
0802e978 T _Z19CPU_Radio_TurnOffRxh
         U _Z19CPU_USB_ProtectPinsij
08075dd8 T _Z19DA_GetPinForChannel10DA_CHANNEL
0802c698 T _Z19Events_SetBoolTimerPjj
0802c478 T _Z19Events_Uninitializev
08038e7c T _Z19HAL_EnterBooterModev
080388e0 T _Z19hal_snprintf_doublePcjPKcd
0802c2e8 T _Z19HAL_Time_Initializev
0802c360 T _Z19HAL_Time_SetComparey
0802e00c T _Z19ID_GetSerialNumbersR18OEM_SERIAL_NUMBERS
0802c77c T _Z19LCD_GetBitsPerPixelv
0802d350 T _Z19MAC_GetNeighborListPt
0802ccd4 T _Z19MAC_GetRadioAddressv
0802d250 T _Z19MAC_SendTimeStampedthPvtj
0802cd30 T _Z19MAC_SetRadioAddresst
0802d804 T _Z19MFUpdate_Initializev
0802d810 T _Z19MFUpdate_InitUpdatePKcR14MFUpdateHeader
0804255c T _Z19PalEvent_Initializev
080427bc T _Z19SimpleHeap_Allocatej
08038394 T _Z19Time_AccDaysInMonthiiPi
08038348 T _Z19Time_FromSystemTimePK10SYSTEMTIME
08038300 T _Z19Time_GetMachineTimev
080396f4 T _Z19USART_AddToRxBufferiPcj
08039730 T _Z19USART_CloseAllPortsv
08039758 T _Z19USART_DiscardBufferij
080383ec T _Z19Utility_SafeSprintfRPcRjPKcz
0803de14 T _Z20BackLight_Initializev
0803dea4 T _Z20Battery_Uninitializev
0802911c T _Z20Buttons_Uninitializev
0803de54 T _Z20Charger_Uninitializev
0802e434 T _Z20CPU_ChangePowerLevel11POWER_LEVEL
080406a4 T _Z20CPU_GPIO_GetDebouncev
080406cc T _Z20CPU_GPIO_GetPinCountv
080404fc T _Z20CPU_GPIO_GetPinStatej
080406b4 T _Z20CPU_GPIO_SetDebouncex
08040558 T _Z20CPU_GPIO_SetPinStatejj
0802e60c T _Z20CPU_Radio_GetAddressh
0802e4e8 T _Z20CPU_Radio_InitializeP17RadioEventHandlerhhh
0802e788 T _Z20CPU_Radio_SendStrobeht
0802e678 T _Z20CPU_Radio_SetAddressht
0804128c T _Z20CPU_SPI_Uninitialize17SPI_CONFIGURATION
08041248 T _Z20CPU_SPI_Uninitializev
08041a38 T _Z20CPU_SPI_Xaction_StopRK17SPI_CONFIGURATION
0802a5cc T _Z20CPU_Timer_InitializetjjPFvPvE
0802a694 T _Z20CPU_Timer_SetComparety
0802fd08 T _Z20CPU_USART_Initializeiiiiii
0802ff84 T _Z20CPU_USART_PortsCountv
08020d34 W _Z20Events_WaitForEventsjj
0802c56c T _Z20Events_WaitForEventsjjj
0803df78 T _Z20Gesture_Uninitializev
08038e3c W _Z20HAL_Init_Custom_Heapv
0802c300 T _Z20HAL_Time_CurrentTimev
0802c338 T _Z20HAL_Time_TicksToTimey
08040958 T _Z20I2C_Internal_GetPinsRjS_
0803f2a8 T _Z20I2C_XAction_SetStateP15I2C_HAL_XACTIONh
08054ab0 T _Z20Interop_Marshal_INT8RK17CLR_RT_StackFramejRa
0802d82c T _Z20MFUpdate_AuthCommandijPhiS_Ri
08035c14 T _Z20Network_Uninitializev
0803b880 T _Z20PublicDataRxCallbackPv
0803c0dc T _Z20PublicDataTxCallbackPv
08079d90 T _Z20PWM_GetPinForChannel11PWM_CHANNEL
08033818 T _Z20rf231_enable_pa_rxtxv
08035c3c T _Z20SOCKETS_Uninitializei
08035cb0 T _Z20SOCKETS_UpgradeToSsliPKhjS0_jPKc
0807655c T _Z20SSL_ParseCertificatePKcjS0_P13_X509CertData
080383bc T _Z20Utility_SafeSprintfVRPcRjPKcSt9__va_list
0803aad0 T _Z20VirtTimer_Initializev
080462b0 T _Z20VirtualTimerCallbackPv
0803e9dc T _Z21AD_ConfigureBatchModePtjjPFvPvES0_
0803e428 T _Z21ADC_RCC_Configurationj
080203c4 T _Z21ApplicationEntryPointv
0803df10 T _Z21Battery_Configurationv
0803def4 T _Z21Battery_StateOfChargeRh
08039570 T _Z21Checksum_RAMConstantsv
080401b8 T _Z21CPU_GPIO_Uninitializev
0804174c T _Z21CPU_SPI_ReadWriteByteRK17SPI_CONFIGURATIONh
08041680 T _Z21CPU_SPI_WriteReadByteRK17SPI_CONFIGURATIONh
08041968 T _Z21CPU_SPI_Xaction_StartRK17SPI_CONFIGURATION
0802a8fc T _Z21CPU_Timer_GetMaxTicksh
08075cc0 T _Z21DAC_RCC_Configurationv
08054ed4 T _Z21GetAssemblyNativeDataPKc
08039114 T _Z21HAL_UnReserveAllGpiosv
08054ae0 T _Z21Interop_Marshal_INT32RK17CLR_RT_StackFramejRi
08054a20 T _Z21Interop_Marshal_UINT8RK17CLR_RT_StackFramejRh
0802d3cc T _Z21MAC_GetNeighborStatustPh
0802d7b4 T _Z21MACLayer_UnInitializev
0802d848 T _Z21MFUpdate_AuthenticateiPhi
0804256c T _Z21PalEvent_Uninitializev
0803d1d4 T _Z21PublicBeaconNCallbackPv
0807a6f0 T _Z21ReceiveDoneCallbackFnPvt
080425f8 T _Z21SimpleHeap_InitializePvj
0803ae2c T _Z21VirtTimer_GetMaxTicksh
0803ad64 T _Z21VirtTimer_TicksToTimehy
08038244 T _Z21Watchdog_ResetCounterv
0803e538 T _Z22ADC_GPIO_Configurationj
0803e45c T _Z22ADC_NVIC_Configurationj
0803de24 T _Z22BackLight_Uninitializev
0803de80 T _Z22Charger_SetTemperatures
0802a95c T _Z22CPU_GetDriftParametersPiS_Px
0802e6f0 T _Z22CPU_Radio_SetRadioTypea
0802e5a0 T _Z22CPU_Radio_UnInitializeh
080418c4 T _Z22CPU_SPI_nWrite8_nRead8RK17SPI_CONFIGURATIONPhiS2_ii
0802a770 T _Z22CPU_Timer_CurrentTickst
0802fdb8 T _Z22CPU_USART_Uninitializei
08075ca8 T _Z22DAC_GPIO_Configurationv
0803f2c4 T _Z22I2C_XAction_CheckStateP15I2C_HAL_XACTIONh
0803f318 T _Z22I2C_XActionUnit_IsReadP20I2C_HAL_XACTION_UNIT
08054a50 T _Z22Interop_Marshal_UINT16RK17CLR_RT_StackFramejRt
08054a80 T _Z22Interop_Marshal_UINT32RK17CLR_RT_StackFramejRj
0802c748 T _Z22LCD_WriteFormattedCharh
0807a728 T _Z22ManagedSendAckCallbackPvt11NetOpStatush
08031938 T _Z22PublicTimeSyncCallbackPv
0802af6c T _Z22SendFirstPacketToRadioPv
080382e8 T _Z22Time_GetTimeZoneOffsetv
08045aa8 T _Z22TimeService_Initializev
08039770 T _Z22USART_ConnectEventSinkiiPvPFvS_jEPS_
0803ae68 T _Z22Watchdog_GetSetEnabledjj
0803ae84 T _Z22Watchdog_GetSetTimeoutij
0803aec0 T _Z22Watchdog_LastOccurenceRxS_RjS0_j
0803b7b0 T _Z23BlockStorage_AddDevicesv
08046ae0 W _Z23CLR_UncompressTypeTokenj
08040378 T _Z23CPU_GPIO_EnableInputPinjjPFvjjPvE13GPIO_INT_EDGE13GPIO_RESISTOR
0802ae14 T _Z23CPU_MicrosecondsToTicksjt
0802ad10 T _Z23CPU_MicrosecondsToTicksyt
0802ab54 T _Z23CPU_MillisecondsToTicksjt
0802eacc T _Z23CPU_Radio_ChangeChannelhi
0802ea58 T _Z23CPU_Radio_ChangeTxPowerhi
0802ac1c T _Z23CPU_TicksToMicrosecondsjt
0802912c T _Z23DebuggerPort_Initializei
08029500 T _Z23DebuggerPort_IsUsingSsli
080408b0 T _Z23I2C_Internal_Initializev
080203fc T _Z23Solution_GetReleaseInfoR13MfReleaseInfo
08038428 T _Z23Time_TimeSpanToStringExRKxRPcRj
080396d4 T _Z23USART_AddCharToRxBufferic
080395b0 T _Z23USART_InitializeManagediiiiii
0803aea0 T _Z23Watchdog_GetSetBehavior17Watchdog_Behaviorj
08046b14 W _Z24CLR_UncompressFieldTokenj
08044ed0 T _Z24CPU_GetUncachableAddressj
080403b0 T _Z24CPU_GPIO_EnableInputPin2jjPFvjjPvES_13GPIO_INT_EDGE13GPIO_RESISTOR
08040338 T _Z24CPU_GPIO_EnableOutputPinjj
08035d2c T _Z24CPU_INTC_InterruptEnablej
0802e8dc T _Z24CPU_Radio_PreloadMessagePht
08041820 T _Z24CPU_SPI_nWrite16_nRead16RK17SPI_CONFIGURATIONPtiS2_ii
0804092c T _Z24I2C_Internal_XActionStopv
08035ca4 T _Z24SOCKETS_CloseConnectionsv
08045abc T _Z24TimeService_UnInitializev
08049dd0 T _Z25CLR_RetrieveCurrentMethodRjS_
08046c14 W _Z25CLR_UncompressElementTypeRPKh
08046b48 W _Z25CLR_UncompressMethodTokenj
08046ac4 W _Z25CLR_UncompressStringTokenj
0802e4a4 T _Z25CPU_IsSoftRebootSupportedv
0802af44 T _Z25csmaRadioInterruptHandler14RadioInterruptPv
080291e8 T _Z25DebuggerPort_Uninitializei
08029440 T _Z25DebuggerPort_UpgradeToSslij
08034f0c T _Z25GenerateSoftwareInterruptv
0803f264 T _Z25I2C_InitializeTransactionP15I2C_HAL_XACTIONR22I2C_USER_CONFIGURATIONPP20I2C_HAL_XACTION_UNITj
08040940 T _Z25I2C_Internal_GetClockRatejRhS_
080408dc T _Z25I2C_Internal_Uninitializev
08040908 T _Z25I2C_Internal_XActionStartP15I2C_HAL_XACTIONb
0807a70c T _Z25NeighborChangedCallbackFns
08030490 T _Z25OMACRadioInterruptHandler14RadioInterruptPv
0806e044 T _Z25SaveNativeEventToHALQueueP38CLR_RT_HeapBlock_NativeEventDispatcherjj
0803e5c0 T _Z26AD_ConfigureContinuousModePtjjPFvPvES0_
08035cf0 T _Z26CPU_INTC_ActivateInterruptjPFvPvES_
0802e864 T _Z26CPU_Radio_Send_TimeStampedhPvtj
0803f2fc T _Z26I2C_XActionUnit_CopyBufferP20I2C_HAL_XACTION_UNITPhj
0802d894 T _Z26MFUpdate_GetMissingPacketsiPjPi
0803973c T _Z26USART_BytesInManagedBufferij
0803ab34 T _Z26VirtTimer_SetOrChangeTimerhjjjjPFvPvEh
08029530 T _Z27CPU_InitializeCommunicationv
08029404 T _Z27DebuggerPort_IsSslSupportedi
0802c3dc T _Z27HAL_Time_GetDriftParametersPiS_Px
0802c3f8 T _Z27HAL_Time_Sleep_MicroSecondsj
0803f2e4 T _Z27I2C_XAction_TransactedBytesP15I2C_HAL_XACTION
08054bc0 T _Z27Interop_Marshal_INT16_ARRAYRK17CLR_RT_StackFramejR17CLR_RT_TypedArrayIsE
08054b10 T _Z27Interop_Marshal_UINT8_ARRAYRK17CLR_RT_StackFramejR17CLR_RT_TypedArrayIhE
08075e54 T _Z27LargeBuffer_ManagedToNativetPKhj
08075e3c T _Z27LargeBuffer_NativeToManagedtPhj
080352cc T _Z27PublicSchedulerTaskHandler1Pv
0803adf0 T _Z27VirtTimer_SleepMicrosecondshj
08035d14 T _Z28CPU_INTC_DeactivateInterruptj
0802a840 T _Z28CPU_Timer_Sleep_MicroSecondsjt
08054b3c T _Z28Interop_Marshal_UINT16_ARRAYRK17CLR_RT_StackFramejR17CLR_RT_TypedArrayItE
08054b68 T _Z28Interop_Marshal_UINT32_ARRAYRK17CLR_RT_StackFramejR17CLR_RT_TypedArrayIjE
08054b94 T _Z28Interop_Marshal_UINT64_ARRAYRK17CLR_RT_StackFramejR17CLR_RT_TypedArrayIyE
08063660 W _Z28TINYCLR_READ_UNALIGNED_INT16IiEvRT_RPKh
080631c0 W _Z28TINYCLR_READ_UNALIGNED_INT32IiEvRT_RPKh
08063254 W _Z28TINYCLR_READ_UNALIGNED_INT64IxEvRT_RPKh
08039714 T _Z28USART_RemoveCharFromTxBufferiRc
08029628 T _Z29CPU_UninitializeCommunicationv
0802ffc4 T _Z29CPU_USART_GetBaudrateBoundaryiRjS_
0802ffe8 T _Z29CPU_USART_IsBaudrateSupportediRj
0802fe8c T _Z29CPU_USART_WriteCharToTxBufferih
0803f284 T _Z29I2C_InitializeTransactionUnitP20I2C_HAL_XACTION_UNITPhS1_jj
08062e94 t _Z29Interop_Marshal_NUMERIC_ARRAYIhEiRK17CLR_RT_StackFramejRPT_Rjj
08062fbc t _Z29Interop_Marshal_NUMERIC_ARRAYIjEiRK17CLR_RT_StackFramejRPT_Rjj
080630e4 t _Z29Interop_Marshal_NUMERIC_ARRAYIsEiRK17CLR_RT_StackFramejRPT_Rjj
08062f28 t _Z29Interop_Marshal_NUMERIC_ARRAYItEiRK17CLR_RT_StackFramejRPT_Rjj
08063050 t _Z29Interop_Marshal_NUMERIC_ARRAYIyEiRK17CLR_RT_StackFramejRPT_Rjj
08034ea8 T _Z29ISR_SoftwareInterrupt_HandlerPv
08063178 W _Z29TINYCLR_READ_UNALIGNED_UINT16IjEvRT_RPKh
08063428 W _Z29TINYCLR_READ_UNALIGNED_UINT32IjEvRT_RPKh
080634a8 W _Z29TINYCLR_READ_UNALIGNED_UINT64IyEvRT_RPKh
08041c50 T _Z30CPU_SPI_Xaction_nWrite8_nRead8R13SPI_XACTION_8
0802fe40 T _Z30CPU_USART_TxShiftRegisterEmptyi
0806e060 T _Z31CleanupNativeEventsFromHALQueueP38CLR_RT_HeapBlock_NativeEventDispatcher
0802eb40 T _Z31CPU_Radio_ClearChannelAssesmenth
0802eba4 T _Z31CPU_Radio_ClearChannelAssesmenthj
08054cd4 T _Z31Interop_Marshal_GetField_UINT32P16CLR_RT_HeapBlockj
08075e24 T _Z31LargeBuffer_GetNativeBufferSizet
0803ea10 T _Z32AD_ConfigureBatchModeDualChannelPtS_jjPFvPvES0_
08041aa4 T _Z32CPU_SPI_Xaction_nWrite16_nRead16R14SPI_XACTION_16
0804071c T _Z34CPU_GPIO_GetSupportedResistorModesj
080352b0 T _Z34PublicSchedulerTaskHandlerFailsafePv
0803e404 T _Z35AD_GetAvailablePrecisionsForChannel14ANALOG_CHANNELPiRj
08040734 T _Z35CPU_GPIO_GetSupportedInterruptModesj
08075e00 T _Z35DA_GetAvailablePrecisionsForChannel10DA_CHANNELPiRj
0802ffac T _Z36CPU_USART_SupportNonStandardBaudRatei
0803ea48 T _Z37AD_ConfigureContinuousModeDualChannelPtS_jjPFvPvES0_
0802ff44 T _Z37CPU_USART_RxBufferFullInterruptEnableij
0802ff08 T _Z37CPU_USART_TxBufferEmptyInterruptStatei
08054cbc T _Z37Interop_Marshal_RetrieveManagedObjectR17CLR_RT_StackFrame
0802fec8 T _Z38CPU_USART_TxBufferEmptyInterruptEnableij
0802c414 T _Z44HAL_Time_Sleep_MicroSeconds_InterruptEnabledj
0802e3e0 T _Z4Haltv
0802e3ec T _Z5Resetv
0802e3b8 T _Z5Sleepv
0807609c T _Z6docrc8ih
080761ec T _Z6owNextiii
0803e384 T _Z7AD_Read14ANALOG_CHANNEL
0807619c T _Z7owFirstiii
08076074 T _Z7setcrc8ih
08076000 T _Z7usDelayj
0802e48c T _Z8CPU_Haltv
08075da0 T _Z8DA_Write10DA_CHANNELi
0802dfa0 T _Z8ISR_TIM1Pv
0802de80 T _Z8ISR_TIM2Pv
0802d2d4 T _Z8MAC_SendthPvt
0802e3fc T _Z8Shutdownv
0803a988 T _Z8USB_ReadiPcj
0802e498 T _Z9CPU_Resetv
0802e464 T _Z9CPU_Sleep11SLEEP_LEVELy
0802e150 T _Z9Low_Powerv
0802e1ec T _Z9Mid_Powerv
08076014 T _Z9owAcquireiPKc
0807605c T _Z9owReleasei
0802e0f8 T _Z9PowerInitv
08034d88 T _Z9RT_Changejj
0803a9a4 T _Z9USB_Flushi
0803a96c T _Z9USB_WriteiPKcj
08032568 t _ZL10add_trx_urv
0808b910 t _ZL10c_CRCTable
0802dc78 t _ZL10clear_tim2v
08023450 t _ZL10FillValuesP16CLR_RT_HeapBlockRPN16CLR_DBG_Commands15Debugging_ValueEjS0_P23CLR_RT_TypeDef_Instance
20006af8 b _ZL10g_UserData
0808d480 t _ZL10GPIO_PORTS
2000caac b _ZL10LastDevice
20002690 d _ZL10owErrorMsg
20002378 d _ZL10realTimeID
08032550 t _ZL11add_rx_timev
20002590 d _ZL11dscrc_table
20007c08 b _ZL11g_timeStamp
0803fdd8 t _ZL11handle_extij
08032580 t _ZL11isInterruptv
0803fed4 t _ZL11IsOutputPinj
0803250c t _ZL12add_irq_timem
0802dc9c t _ZL12clear_timersv
2000cba0 b _ZL12g_sdUserData
08038e68 t _ZL12InitCRuntimev
2000c9b0 b _ZL12owErrorStack
08020280 t _ZL12Prepare_CopyPjS_j
080202f4 t _ZL12Prepare_ZeroPjj
08096ec1 t _ZL12TIMER1_16BIT
0808c4fd t _ZL12TIMER1_16BIT
0808b82d t _ZL12TIMER1_16BIT
0808c22d t _ZL12TIMER1_16BIT
0808cf91 t _ZL12TIMER1_16BIT
0808d78d t _ZL12TIMER1_16BIT
0808c8d9 t _ZL12TIMER1_16BIT
08096d0d t _ZL12TIMER1_16BIT
080952c5 t _ZL12TIMER1_16BIT
0808ce19 t _ZL12TIMER1_16BIT
0808ea21 t _ZL12TIMER1_16BIT
0809493d t _ZL12TIMER1_16BIT
0808ca29 t _ZL12TIMER1_16BIT
0808a661 t _ZL12TIMER1_16BIT
08095519 t _ZL12TIMER1_16BIT
08094a3d t _ZL12TIMER1_16BIT
0808d2fd t _ZL12TIMER1_16BIT
0808c1f5 t _ZL12TIMER1_16BIT
080954b5 t _ZL12TIMER1_16BIT
0808ae99 t _ZL12TIMER1_16BIT
08093931 t _ZL12TIMER1_16BIT
0808bf95 t _ZL12TIMER1_16BIT
0808d5f1 t _ZL12TIMER1_16BIT
08094d35 t _ZL12TIMER1_16BIT
0808c691 t _ZL12TIMER1_16BIT
0808d475 t _ZL12TIMER1_16BIT
0808d1b9 t _ZL12TIMER1_16BIT
0808d741 t _ZL12TIMER1_16BIT
0808c7f5 t _ZL12TIMER1_16BIT
08096f21 t _ZL12TIMER1_16BIT
0808d6d9 t _ZL12TIMER1_16BIT
0808ce49 t _ZL12TIMER1_16BIT
0808af79 t _ZL12TIMER1_16BIT
0808d4b5 t _ZL12TIMER1_16BIT
0808a9ed t _ZL12TIMER1_16BIT
0808d3d9 t _ZL12TIMER1_16BIT
08096e69 t _ZL12TIMER1_16BIT
0808cc65 t _ZL12TIMER1_16BIT
0808cb99 t _ZL12TIMER1_16BIT
0808cde1 t _ZL12TIMER1_16BIT
0808cec9 t _ZL12TIMER1_16BIT
0808bd41 t _ZL12TIMER1_16BIT
0809a839 t _ZL12TIMER1_16BIT
0808bda1 t _ZL12TIMER1_16BIT
0808d669 t _ZL12TIMER1_16BIT
08096a85 t _ZL12TIMER1_16BIT
0808be05 t _ZL12TIMER1_16BIT
080969c5 t _ZL12TIMER1_16BIT
0808b901 t _ZL12TIMER1_16BIT
0808abd9 t _ZL12TIMER1_16BIT
080969c6 t _ZL12TIMER2_16BIT
08096a86 t _ZL12TIMER2_16BIT
0808bda2 t _ZL12TIMER2_16BIT
0808bd42 t _ZL12TIMER2_16BIT
0808a9ee t _ZL12TIMER2_16BIT
0808d3da t _ZL12TIMER2_16BIT
0808c7f6 t _ZL12TIMER2_16BIT
08096e6a t _ZL12TIMER2_16BIT
08096f22 t _ZL12TIMER2_16BIT
0808d1ba t _ZL12TIMER2_16BIT
0808d476 t _ZL12TIMER2_16BIT
08093932 t _ZL12TIMER2_16BIT
08094a3e t _ZL12TIMER2_16BIT
0809551a t _ZL12TIMER2_16BIT
0808abda t _ZL12TIMER2_16BIT
0808a662 t _ZL12TIMER2_16BIT
0808d78e t _ZL12TIMER2_16BIT
0808ca2a t _ZL12TIMER2_16BIT
08096d0e t _ZL12TIMER2_16BIT
0809493e t _ZL12TIMER2_16BIT
080952c6 t _ZL12TIMER2_16BIT
0808d742 t _ZL12TIMER2_16BIT
0808ea22 t _ZL12TIMER2_16BIT
08096ec2 t _ZL12TIMER2_16BIT
0808d2fe t _ZL12TIMER2_16BIT
08094d36 t _ZL12TIMER2_16BIT
0808cde2 t _ZL12TIMER2_16BIT
0808af7a t _ZL12TIMER2_16BIT
0808c692 t _ZL12TIMER2_16BIT
0808b902 t _ZL12TIMER2_16BIT
0808d4b6 t _ZL12TIMER2_16BIT
0808c4fe t _ZL12TIMER2_16BIT
0808cf92 t _ZL12TIMER2_16BIT
0808ce4a t _ZL12TIMER2_16BIT
0808c8da t _ZL12TIMER2_16BIT
0808c22e t _ZL12TIMER2_16BIT
0808b82e t _ZL12TIMER2_16BIT
0808c1f6 t _ZL12TIMER2_16BIT
0808ce1a t _ZL12TIMER2_16BIT
080954b6 t _ZL12TIMER2_16BIT
0808d6da t _ZL12TIMER2_16BIT
0808bf96 t _ZL12TIMER2_16BIT
0808ae9a t _ZL12TIMER2_16BIT
0808d5f2 t _ZL12TIMER2_16BIT
0808ceca t _ZL12TIMER2_16BIT
0808cb9a t _ZL12TIMER2_16BIT
0808be06 t _ZL12TIMER2_16BIT
0809a83a t _ZL12TIMER2_16BIT
0808d66a t _ZL12TIMER2_16BIT
0808cc66 t _ZL12TIMER2_16BIT
0803255c t _ZL13add_send_donev
08032544 t _ZL13add_send_timev
08025008 t _ZL13Assign_HelperP16CLR_RT_HeapBlockS0_
080948e4 t _ZL13c_WhiteSpaces
080703c8 t _ZL13ComputeSinCosR17CLR_RT_StackFrameb
0808d234 t _ZL13FAST_RECOVERY
2000cb88 b _ZL13g_adcUserData
0808bd98 t _ZL13HARDWARE_ACKS
0808ae90 t _ZL13HARDWARE_ACKS
0808ca20 t _ZL13HARDWARE_ACKS
0808d2f4 t _ZL13HARDWARE_ACKS
0809a830 t _ZL13HARDWARE_ACKS
0808d3d0 t _ZL13HARDWARE_ACKS
0808d784 t _ZL13HARDWARE_ACKS
0808b824 t _ZL13HARDWARE_ACKS
0808a658 t _ZL13HARDWARE_ACKS
08094934 t _ZL13HARDWARE_ACKS
0808af70 t _ZL13HARDWARE_ACKS
08096a7c t _ZL13HARDWARE_ACKS
08096eb8 t _ZL13HARDWARE_ACKS
0808c7ec t _ZL13HARDWARE_ACKS
0808d738 t _ZL13HARDWARE_ACKS
0808bf8c t _ZL13HARDWARE_ACKS
0808c224 t _ZL13HARDWARE_ACKS
080952bc t _ZL13HARDWARE_ACKS
0808a9e4 t _ZL13HARDWARE_ACKS
0808cb90 t _ZL13HARDWARE_ACKS
0808c8d0 t _ZL13HARDWARE_ACKS
0808d6d0 t _ZL13HARDWARE_ACKS
08096e60 t _ZL13HARDWARE_ACKS
08094d2c t _ZL13HARDWARE_ACKS
0808c688 t _ZL13HARDWARE_ACKS
0808bdfc t _ZL13HARDWARE_ACKS
0808bd38 t _ZL13HARDWARE_ACKS
0808d660 t _ZL13HARDWARE_ACKS
08096f18 t _ZL13HARDWARE_ACKS
08094a34 t _ZL13HARDWARE_ACKS
0808cec0 t _ZL13HARDWARE_ACKS
0808d46c t _ZL13HARDWARE_ACKS
0808cdd8 t _ZL13HARDWARE_ACKS
0808cc5c t _ZL13HARDWARE_ACKS
08095510 t _ZL13HARDWARE_ACKS
0808abd0 t _ZL13HARDWARE_ACKS
0808bf20 t _ZL13HARDWARE_ACKS
0808b8f8 t _ZL13HARDWARE_ACKS
0808d1b0 t _ZL13HARDWARE_ACKS
0808ea18 t _ZL13HARDWARE_ACKS
0808c1ec t _ZL13HARDWARE_ACKS
0808d5e8 t _ZL13HARDWARE_ACKS
080954ac t _ZL13HARDWARE_ACKS
0808ce10 t _ZL13HARDWARE_ACKS
0808cf88 t _ZL13HARDWARE_ACKS
080969bc t _ZL13HARDWARE_ACKS
08096d04 t _ZL13HARDWARE_ACKS
0808ce40 t _ZL13HARDWARE_ACKS
08093928 t _ZL13HARDWARE_ACKS
0808d4ac t _ZL13HARDWARE_ACKS
0808c4f4 t _ZL13HARDWARE_ACKS
080939e4 t _ZL13method_lookup
08094aec t _ZL13method_lookup
08096f30 t _ZL13method_lookup
08095374 t _ZL13method_lookup
08096d18 t _ZL13method_lookup
080954c0 t _ZL13method_lookup
08094de4 t _ZL13method_lookup
0808cae8 t _ZL13method_lookup
08096a90 t _ZL13method_lookup
20003110 b _ZL13s_ClrSettings
2000311c b _ZL13s_missingPkts
0808ce14 t _ZL13SOFTWARE_ACKS
0808bd9c t _ZL13SOFTWARE_ACKS
0808c4f8 t _ZL13SOFTWARE_ACKS
0808d2f8 t _ZL13SOFTWARE_ACKS
080954b0 t _ZL13SOFTWARE_ACKS
0808c1f0 t _ZL13SOFTWARE_ACKS
0808c8d4 t _ZL13SOFTWARE_ACKS
0808cf8c t _ZL13SOFTWARE_ACKS
0808d5ec t _ZL13SOFTWARE_ACKS
0808ca24 t _ZL13SOFTWARE_ACKS
08094938 t _ZL13SOFTWARE_ACKS
0808af74 t _ZL13SOFTWARE_ACKS
08096d08 t _ZL13SOFTWARE_ACKS
0808d1b4 t _ZL13SOFTWARE_ACKS
0809a834 t _ZL13SOFTWARE_ACKS
0808abd4 t _ZL13SOFTWARE_ACKS
0808d788 t _ZL13SOFTWARE_ACKS
0808cc60 t _ZL13SOFTWARE_ACKS
0808d3d4 t _ZL13SOFTWARE_ACKS
0808d470 t _ZL13SOFTWARE_ACKS
0808cddc t _ZL13SOFTWARE_ACKS
0809392c t _ZL13SOFTWARE_ACKS
0808cec4 t _ZL13SOFTWARE_ACKS
0808ae94 t _ZL13SOFTWARE_ACKS
0808d4b0 t _ZL13SOFTWARE_ACKS
08096f1c t _ZL13SOFTWARE_ACKS
0808d664 t _ZL13SOFTWARE_ACKS
0808b8fc t _ZL13SOFTWARE_ACKS
0808a65c t _ZL13SOFTWARE_ACKS
08094a38 t _ZL13SOFTWARE_ACKS
0808c7f0 t _ZL13SOFTWARE_ACKS
080952c0 t _ZL13SOFTWARE_ACKS
08095514 t _ZL13SOFTWARE_ACKS
0808bd3c t _ZL13SOFTWARE_ACKS
08096ebc t _ZL13SOFTWARE_ACKS
0808be00 t _ZL13SOFTWARE_ACKS
0808c68c t _ZL13SOFTWARE_ACKS
08096a80 t _ZL13SOFTWARE_ACKS
0808d73c t _ZL13SOFTWARE_ACKS
0808bf90 t _ZL13SOFTWARE_ACKS
0808c228 t _ZL13SOFTWARE_ACKS
0808cb94 t _ZL13SOFTWARE_ACKS
0808a9e8 t _ZL13SOFTWARE_ACKS
0808b828 t _ZL13SOFTWARE_ACKS
0808bf24 t _ZL13SOFTWARE_ACKS
0808ea1c t _ZL13SOFTWARE_ACKS
08096e64 t _ZL13SOFTWARE_ACKS
080969c0 t _ZL13SOFTWARE_ACKS
0808d6d4 t _ZL13SOFTWARE_ACKS
0808ce44 t _ZL13SOFTWARE_ACKS
08094d30 t _ZL13SOFTWARE_ACKS
08032520 t _ZL14add_sleep_timev
0808d6d8 t _ZL14ADVTIMER_32BIT
0808b900 t _ZL14ADVTIMER_32BIT
08094d34 t _ZL14ADVTIMER_32BIT
0808ce48 t _ZL14ADVTIMER_32BIT
0808bf94 t _ZL14ADVTIMER_32BIT
0808c22c t _ZL14ADVTIMER_32BIT
0808cb98 t _ZL14ADVTIMER_32BIT
0808a9ec t _ZL14ADVTIMER_32BIT
08096a84 t _ZL14ADVTIMER_32BIT
0808bd40 t _ZL14ADVTIMER_32BIT
0808d740 t _ZL14ADVTIMER_32BIT
0808cde0 t _ZL14ADVTIMER_32BIT
0808c690 t _ZL14ADVTIMER_32BIT
08094a3c t _ZL14ADVTIMER_32BIT
08096e68 t _ZL14ADVTIMER_32BIT
08096ec0 t _ZL14ADVTIMER_32BIT
08096f20 t _ZL14ADVTIMER_32BIT
0808b82c t _ZL14ADVTIMER_32BIT
0808abd8 t _ZL14ADVTIMER_32BIT
0808c7f4 t _ZL14ADVTIMER_32BIT
0808d668 t _ZL14ADVTIMER_32BIT
0808ea20 t _ZL14ADVTIMER_32BIT
0808d3d8 t _ZL14ADVTIMER_32BIT
0808cec8 t _ZL14ADVTIMER_32BIT
0808bda0 t _ZL14ADVTIMER_32BIT
080969c4 t _ZL14ADVTIMER_32BIT
0808d474 t _ZL14ADVTIMER_32BIT
0808d1b8 t _ZL14ADVTIMER_32BIT
0808d78c t _ZL14ADVTIMER_32BIT
0809493c t _ZL14ADVTIMER_32BIT
0808ca28 t _ZL14ADVTIMER_32BIT
0808af78 t _ZL14ADVTIMER_32BIT
0808a660 t _ZL14ADVTIMER_32BIT
0808d5f0 t _ZL14ADVTIMER_32BIT
080954b4 t _ZL14ADVTIMER_32BIT
08096d0c t _ZL14ADVTIMER_32BIT
0808c4fc t _ZL14ADVTIMER_32BIT
08095518 t _ZL14ADVTIMER_32BIT
0808d2fc t _ZL14ADVTIMER_32BIT
0808ce18 t _ZL14ADVTIMER_32BIT
0808c1f4 t _ZL14ADVTIMER_32BIT
0808c8d8 t _ZL14ADVTIMER_32BIT
0808cf90 t _ZL14ADVTIMER_32BIT
080952c4 t _ZL14ADVTIMER_32BIT
08093930 t _ZL14ADVTIMER_32BIT
0808ae98 t _ZL14ADVTIMER_32BIT
0809a838 t _ZL14ADVTIMER_32BIT
0808d4b4 t _ZL14ADVTIMER_32BIT
0808cc64 t _ZL14ADVTIMER_32BIT
0808be04 t _ZL14ADVTIMER_32BIT
080952d0 t _ZL14CLR_EmptyIndex
0808ea30 t _ZL14CLR_EmptyIndex
0808cfa8 t _ZL14CLR_EmptyIndex
0808af88 t _ZL14CLR_EmptyIndex
0808aea8 t _ZL14CLR_EmptyIndex
08094a48 t _ZL14CLR_EmptyIndex
08094948 t _ZL14CLR_EmptyIndex
0808a9f8 t _ZL14CLR_EmptyIndex
0808c808 t _ZL14CLR_EmptyIndex
0808abe8 t _ZL14CLR_EmptyIndex
0808c510 t _ZL14CLR_EmptyIndex
08093940 t _ZL14CLR_EmptyIndex
08094d40 t _ZL14CLR_EmptyIndex
0808ca38 t _ZL14CLR_EmptyIndex
0808cbb0 t _ZL14CLR_EmptyIndex
0808d1d0 t _ZL14CLR_EmptyIndex
0808d310 t _ZL14CLR_EmptyIndex
0808b838 t _ZL14CLR_EmptyIndex
0808c6a8 t _ZL14CLR_EmptyIndex
0808c6ac t _ZL14CLR_EmptyToken
0808d1d4 t _ZL14CLR_EmptyToken
080952d4 t _ZL14CLR_EmptyToken
0808ca3c t _ZL14CLR_EmptyToken
0808cbb4 t _ZL14CLR_EmptyToken
08093944 t _ZL14CLR_EmptyToken
0808ea34 t _ZL14CLR_EmptyToken
0808cfac t _ZL14CLR_EmptyToken
0808abec t _ZL14CLR_EmptyToken
0808c514 t _ZL14CLR_EmptyToken
08094d44 t _ZL14CLR_EmptyToken
0808d314 t _ZL14CLR_EmptyToken
0808c80c t _ZL14CLR_EmptyToken
0808aeac t _ZL14CLR_EmptyToken
0808a9fc t _ZL14CLR_EmptyToken
0808af8c t _ZL14CLR_EmptyToken
0809494c t _ZL14CLR_EmptyToken
08094a4c t _ZL14CLR_EmptyToken
0808b83c t _ZL14CLR_EmptyToken
0803fe84 t _ZL14GPIO_GetExtrCRj
0808d000 t _ZL14MAXHOSTNAMELEN
0808ac40 t _ZL14MAXHOSTNAMELEN
0808b890 t _ZL14MAXHOSTNAMELEN
0808cc08 t _ZL14MAXHOSTNAMELEN
0808c860 t _ZL14MAXHOSTNAMELEN
0808c568 t _ZL14MAXHOSTNAMELEN
08094aa0 t _ZL14MAXHOSTNAMELEN
0808ea88 t _ZL14MAXHOSTNAMELEN
0808d228 t _ZL14MAXHOSTNAMELEN
08093998 t _ZL14MAXHOSTNAMELEN
0808aa50 t _ZL14MAXHOSTNAMELEN
0808ca90 t _ZL14MAXHOSTNAMELEN
0808c700 t _ZL14MAXHOSTNAMELEN
0808af00 t _ZL14MAXHOSTNAMELEN
08095328 t _ZL14MAXHOSTNAMELEN
0808afe0 t _ZL14MAXHOSTNAMELEN
080949a0 t _ZL14MAXHOSTNAMELEN
0808d368 t _ZL14MAXHOSTNAMELEN
08094d98 t _ZL14MAXHOSTNAMELEN
0808b894 t _ZL14MAXTYPENAMELEN
0808c56c t _ZL14MAXTYPENAMELEN
0808c704 t _ZL14MAXTYPENAMELEN
0808ea8c t _ZL14MAXTYPENAMELEN
0808c864 t _ZL14MAXTYPENAMELEN
08094d9c t _ZL14MAXTYPENAMELEN
0808afe4 t _ZL14MAXTYPENAMELEN
080949a4 t _ZL14MAXTYPENAMELEN
0809532c t _ZL14MAXTYPENAMELEN
0808af04 t _ZL14MAXTYPENAMELEN
0808ac44 t _ZL14MAXTYPENAMELEN
0808cc0c t _ZL14MAXTYPENAMELEN
08094aa4 t _ZL14MAXTYPENAMELEN
0808d004 t _ZL14MAXTYPENAMELEN
0809399c t _ZL14MAXTYPENAMELEN
0808d22c t _ZL14MAXTYPENAMELEN
0808aa54 t _ZL14MAXTYPENAMELEN
0808d36c t _ZL14MAXTYPENAMELEN
0808ca94 t _ZL14MAXTYPENAMELEN
2000ca28 b _ZL14owErrorPointer
08075308 t _ZL14PostUsartEventPvj
080243bc t _ZL14SetBlockHelperP16CLR_RT_HeapBlock12CLR_DataTypePh
0808c804 t _ZL14timestamp_size
0808d1cc t _ZL14timestamp_size
0808c6a4 t _ZL14timestamp_size
0808cfa4 t _ZL14timestamp_size
0808c50c t _ZL14timestamp_size
0808bf3c t _ZL14timestamp_size
0808cdf4 t _ZL14timestamp_size
0808bfa4 t _ZL14timestamp_size
0808d30c t _ZL14timestamp_size
0808cbac t _ZL14timestamp_size
0808c8ec t _ZL14timestamp_size
0808b064 t _ZL15c_Messaging_app
0808b05c t _ZL15c_Messaging_phy
08078a6c t _ZL15CleanupSDDriverP38CLR_RT_HeapBlock_NativeEventDispatcher
2000ca2c b _ZL15LastDiscrepancy
2000cca8 b _ZL15LCD_Initialized
20006b3c b _ZL15LoggingCallback
20004d70 b _ZL15stm_power_state
08032538 t _ZL16add_send_ts_timev
08077a58 t _ZL16CleanupADCDriverP38CLR_RT_HeapBlock_NativeEventDispatcher
08071a3c t _ZL16CleanupEventSinkP38CLR_RT_HeapBlock_NativeEventDispatcher
0808d758 t _ZL16cTimerMax32Value
0808d750 t _ZL16cTimerMax64Value
20006b30 b _ZL16debuggerAttached
0802fce4 t _ZL16do_com0_attachedjjPv
0808d230 t _ZL16EXECUTE_WITH_CCA
20008008 b _ZL16g_s_FirstCluster
0802435c t _ZL16IsBlockEnumMaybeP16CLR_RT_HeapBlock
0808c8e0 t _ZL16MAX_SD_CARD_SIZE
0808d3e0 t _ZL16MAX_SD_CARD_SIZE
08096f28 t _ZL16MAX_SD_CARD_SIZE
0808d790 t _ZL16MAX_SD_CARD_SIZE
0808af80 t _ZL16MAX_SD_CARD_SIZE
0808aea0 t _ZL16MAX_SD_CARD_SIZE
0808ca30 t _ZL16MAX_SD_CARD_SIZE
0808c7f8 t _ZL16MAX_SD_CARD_SIZE
08094d38 t _ZL16MAX_SD_CARD_SIZE
0808a668 t _ZL16MAX_SD_CARD_SIZE
0808c698 t _ZL16MAX_SD_CARD_SIZE
0808b830 t _ZL16MAX_SD_CARD_SIZE
0808d748 t _ZL16MAX_SD_CARD_SIZE
0808c500 t _ZL16MAX_SD_CARD_SIZE
0808c1f8 t _ZL16MAX_SD_CARD_SIZE
0808cde8 t _ZL16MAX_SD_CARD_SIZE
08095520 t _ZL16MAX_SD_CARD_SIZE
0808d6e0 t _ZL16MAX_SD_CARD_SIZE
080969c8 t _ZL16MAX_SD_CARD_SIZE
0808c230 t _ZL16MAX_SD_CARD_SIZE
0808bf98 t _ZL16MAX_SD_CARD_SIZE
080952c8 t _ZL16MAX_SD_CARD_SIZE
08096a88 t _ZL16MAX_SD_CARD_SIZE
0808cba0 t _ZL16MAX_SD_CARD_SIZE
0808d300 t _ZL16MAX_SD_CARD_SIZE
08094940 t _ZL16MAX_SD_CARD_SIZE
0808a9f0 t _ZL16MAX_SD_CARD_SIZE
0808d670 t _ZL16MAX_SD_CARD_SIZE
0808ce50 t _ZL16MAX_SD_CARD_SIZE
0808abe0 t _ZL16MAX_SD_CARD_SIZE
0808bf30 t _ZL16MAX_SD_CARD_SIZE
0808ced0 t _ZL16MAX_SD_CARD_SIZE
0808d5f8 t _ZL16MAX_SD_CARD_SIZE
0808be08 t _ZL16MAX_SD_CARD_SIZE
0808cc68 t _ZL16MAX_SD_CARD_SIZE
0809a840 t _ZL16MAX_SD_CARD_SIZE
0808ce20 t _ZL16MAX_SD_CARD_SIZE
0808bda8 t _ZL16MAX_SD_CARD_SIZE
0808cf98 t _ZL16MAX_SD_CARD_SIZE
0808bd48 t _ZL16MAX_SD_CARD_SIZE
08096e70 t _ZL16MAX_SD_CARD_SIZE
0808d4b8 t _ZL16MAX_SD_CARD_SIZE
080954b8 t _ZL16MAX_SD_CARD_SIZE
0808b908 t _ZL16MAX_SD_CARD_SIZE
08096ec8 t _ZL16MAX_SD_CARD_SIZE
0808ea28 t _ZL16MAX_SD_CARD_SIZE
08094a40 t _ZL16MAX_SD_CARD_SIZE
08093938 t _ZL16MAX_SD_CARD_SIZE
0808d478 t _ZL16MAX_SD_CARD_SIZE
08096d10 t _ZL16MAX_SD_CARD_SIZE
0808d1c0 t _ZL16MAX_SD_CARD_SIZE
20007fc0 b _ZL16pin_reservations
20006b34 b _ZL16realtimeTimerCnt
08035dfc t _ZL16reset_all_timersv
20006b54 b _ZL16s_rebootHandlers
20006bb0 b _ZL16use_com0_managed
0808ac90 t _ZL17AccessMemory_Read
0803252c t _ZL17add_rx_start_timev
0809482c t _ZL17c_ExceptionLookup
080933c0 t _ZL17c_TypeIndexLookup
08034f30 t _ZL17EnqueueEventToCLRP38CLR_RT_HeapBlock_NativeEventDispatcher
0804074c t _ZL17EXTI0_IRQ_HANDLERPv
08040760 t _ZL17EXTI1_IRQ_HANDLERPv
08040774 t _ZL17EXTI2_IRQ_HANDLERPv
08040788 t _ZL17EXTI3_IRQ_HANDLERPv
0804079c t _ZL17EXTI4_IRQ_HANDLERPv
08022b7c t _ZL17GetClrReleaseInfoRN16CLR_DBG_Commands40Debugging_Execution_QueryCLRCapabilities7ClrInfoE
0802e144 t _ZL17pause_peripheralsv
20004f84 b _ZL17PORTS_IN_USE_MASK
08035ed8 t _ZL17RCC_Configurationv
0808ac8c t _ZL18AccessMemory_Check
0808ac98 t _ZL18AccessMemory_Erase
0808ac94 t _ZL18AccessMemory_Write
08032574 t _ZL18add_download_errorv
0808ca98 t _ZL18c_CLR_HW_Button_Up
08095330 t _ZL18c_CLR_HW_Button_Up
08094aa8 t _ZL18c_CLR_HW_Button_Up
080939a0 t _ZL18c_CLR_HW_Button_Up
0808aa58 t _ZL18c_CLR_HW_Button_Up
0808ea90 t _ZL18c_CLR_HW_Button_Up
08094da0 t _ZL18c_CLR_HW_Button_Up
0808afe8 t _ZL18c_CLR_HW_Button_Up
0808ac48 t _ZL18c_CLR_HW_Button_Up
0808af08 t _ZL18c_CLR_HW_Button_Up
080949a8 t _ZL18c_CLR_HW_Button_Up
0808b898 t _ZL18c_CLR_HW_Button_Up
080765cc t _ZL18Cleanup_Net_DriverP38CLR_RT_HeapBlock_NativeEventDispatcher
0808a9d0 t _ZL18g_HardwareTimerIDs
0808d5d4 t _ZL18g_HardwareTimerIDs
08095498 t _ZL18g_HardwareTimerIDs
0808af5c t _ZL18g_HardwareTimerIDs
0808cc48 t _ZL18g_HardwareTimerIDs
08094920 t _ZL18g_HardwareTimerIDs
08096cf0 t _ZL18g_HardwareTimerIDs
0808d64c t _ZL18g_HardwareTimerIDs
0808abbc t _ZL18g_HardwareTimerIDs
0808b810 t _ZL18g_HardwareTimerIDs
08096ea4 t _ZL18g_HardwareTimerIDs
0808ceac t _ZL18g_HardwareTimerIDs
08093914 t _ZL18g_HardwareTimerIDs
0808d498 t _ZL18g_HardwareTimerIDs
080969a8 t _ZL18g_HardwareTimerIDs
0808d6bc t _ZL18g_HardwareTimerIDs
0809a81c t _ZL18g_HardwareTimerIDs
0808b8e4 t _ZL18g_HardwareTimerIDs
0808bd24 t _ZL18g_HardwareTimerIDs
08096f04 t _ZL18g_HardwareTimerIDs
0808ea04 t _ZL18g_HardwareTimerIDs
0808bd84 t _ZL18g_HardwareTimerIDs
08094d18 t _ZL18g_HardwareTimerIDs
0808bde8 t _ZL18g_HardwareTimerIDs
0808ce2c t _ZL18g_HardwareTimerIDs
0808bf78 t _ZL18g_HardwareTimerIDs
0808a644 t _ZL18g_HardwareTimerIDs
08096e4c t _ZL18g_HardwareTimerIDs
0808d458 t _ZL18g_HardwareTimerIDs
0808c210 t _ZL18g_HardwareTimerIDs
08096a68 t _ZL18g_HardwareTimerIDs
080952a8 t _ZL18g_HardwareTimerIDs
0808d770 t _ZL18g_HardwareTimerIDs
08094a20 t _ZL18g_HardwareTimerIDs
0808c8bc t _ZL18g_HardwareTimerIDs
080954fc t _ZL18g_HardwareTimerIDs
0808c1d8 t _ZL18g_HardwareTimerIDs
0808ae7c t _ZL18g_HardwareTimerIDs
0808d3bc t _ZL18g_HardwareTimerIDs
08078a0c t _ZL18InitializeSDDriverP38CLR_RT_HeapBlock_NativeEventDispatchery
08061120 t _ZL18local_FindFieldDefP15CLR_RT_AssemblyjjPKcS0_tR21CLR_RT_FieldDef_Index
20008a1c b _ZL18s_PreHeapInitIndex
0808ac88 t _ZL19c_CLR_HW_Button_MAX
0808aa98 t _ZL19c_CLR_HW_Button_MAX
08094de0 t _ZL19c_CLR_HW_Button_MAX
0808af48 t _ZL19c_CLR_HW_Button_MAX
0808ead0 t _ZL19c_CLR_HW_Button_MAX
0808b028 t _ZL19c_CLR_HW_Button_MAX
080949e8 t _ZL19c_CLR_HW_Button_MAX
0808cad8 t _ZL19c_CLR_HW_Button_MAX
080939e0 t _ZL19c_CLR_HW_Button_MAX
0808b8d8 t _ZL19c_CLR_HW_Button_MAX
08095370 t _ZL19c_CLR_HW_Button_MAX
08094ae8 t _ZL19c_CLR_HW_Button_MAX
0808cbf8 t _ZL19c_CLR_RT_Trace_Info
08095318 t _ZL19c_CLR_RT_Trace_Info
0808b880 t _ZL19c_CLR_RT_Trace_Info
08093988 t _ZL19c_CLR_RT_Trace_Info
0808ea78 t _ZL19c_CLR_RT_Trace_Info
0808ca80 t _ZL19c_CLR_RT_Trace_Info
0808afd0 t _ZL19c_CLR_RT_Trace_Info
0808c558 t _ZL19c_CLR_RT_Trace_Info
0808c6f0 t _ZL19c_CLR_RT_Trace_Info
08094d88 t _ZL19c_CLR_RT_Trace_Info
08094a90 t _ZL19c_CLR_RT_Trace_Info
0808ac30 t _ZL19c_CLR_RT_Trace_Info
0808aa40 t _ZL19c_CLR_RT_Trace_Info
0808cff0 t _ZL19c_CLR_RT_Trace_Info
0808c850 t _ZL19c_CLR_RT_Trace_Info
0808aef0 t _ZL19c_CLR_RT_Trace_Info
0808d218 t _ZL19c_CLR_RT_Trace_Info
08094990 t _ZL19c_CLR_RT_Trace_Info
0808d358 t _ZL19c_CLR_RT_Trace_Info
0808c84c t _ZL19c_CLR_RT_Trace_None
08095314 t _ZL19c_CLR_RT_Trace_None
0808c6ec t _ZL19c_CLR_RT_Trace_None
08093984 t _ZL19c_CLR_RT_Trace_None
0808ac2c t _ZL19c_CLR_RT_Trace_None
0808ca7c t _ZL19c_CLR_RT_Trace_None
0808ea74 t _ZL19c_CLR_RT_Trace_None
0809498c t _ZL19c_CLR_RT_Trace_None
0808d354 t _ZL19c_CLR_RT_Trace_None
0808afcc t _ZL19c_CLR_RT_Trace_None
0808aa3c t _ZL19c_CLR_RT_Trace_None
0808cfec t _ZL19c_CLR_RT_Trace_None
0808aeec t _ZL19c_CLR_RT_Trace_None
0808c554 t _ZL19c_CLR_RT_Trace_None
08094d84 t _ZL19c_CLR_RT_Trace_None
0808d214 t _ZL19c_CLR_RT_Trace_None
0808b87c t _ZL19c_CLR_RT_Trace_None
08094a8c t _ZL19c_CLR_RT_Trace_None
0808cbf4 t _ZL19c_CLR_RT_Trace_None
08093844 t _ZL19c_MethodIndexLookup
080407b0 t _ZL19EXTI9_5_IRQ_HANDLERPv
080779f8 t _ZL19InitializeADCDriverP38CLR_RT_HeapBlock_NativeEventDispatchery
080719f8 t _ZL19InitializeEventSinkP38CLR_RT_HeapBlock_NativeEventDispatchery
2000cca9 b _ZL19LCD_WriteInProgress
08024ee4 t _ZL20AnalyzeObject_HelperP16CLR_RT_HeapBlockR13AnalyzeObject
08094da4 t _ZL20c_CLR_HW_Button_Down
0808ac4c t _ZL20c_CLR_HW_Button_Down
08094aac t _ZL20c_CLR_HW_Button_Down
0808aa5c t _ZL20c_CLR_HW_Button_Down
0808b89c t _ZL20c_CLR_HW_Button_Down
0808af0c t _ZL20c_CLR_HW_Button_Down
0808afec t _ZL20c_CLR_HW_Button_Down
080939a4 t _ZL20c_CLR_HW_Button_Down
0808ea94 t _ZL20c_CLR_HW_Button_Down
0808ca9c t _ZL20c_CLR_HW_Button_Down
08095334 t _ZL20c_CLR_HW_Button_Down
080949ac t _ZL20c_CLR_HW_Button_Down
08092c68 t _ZL20c_MARKER_ASSEMBLY_V1
080502ac t _ZL20FixReflectionForTypeRK16CLR_RT_HeapBlockRS_
2000cba8 b _ZL20g_sdInterruptEnabled
080244ec t _ZL20GetScratchPad_Helperi
080325a8 t _ZL20interrupt_mode_checkv
20004f64 b _ZL20USART1_InitStructure
20004f74 b _ZL20USART2_InitStructure
0808b8a0 t _ZL21c_CLR_HW_Button_Spare
0808caa0 t _ZL21c_CLR_HW_Button_Spare
0808ac50 t _ZL21c_CLR_HW_Button_Spare
08094da8 t _ZL21c_CLR_HW_Button_Spare
08095338 t _ZL21c_CLR_HW_Button_Spare
080939a8 t _ZL21c_CLR_HW_Button_Spare
0808aff0 t _ZL21c_CLR_HW_Button_Spare
0808ea98 t _ZL21c_CLR_HW_Button_Spare
0808af10 t _ZL21c_CLR_HW_Button_Spare
0808aa60 t _ZL21c_CLR_HW_Button_Spare
080949b0 t _ZL21c_CLR_HW_Button_Spare
08094ab0 t _ZL21c_CLR_HW_Button_Spare
0808ead8 t _ZL21c_MaximumTimeToActive
080754fc t _ZL21CleanupUsartErrorSinkP38CLR_RT_HeapBlock_NativeEventDispatcher
08050324 t _ZL21CompareValues_Numericii
08050358 t _ZL21CompareValues_Numericjj
0805041c t _ZL21CompareValues_NumericRK16CLR_RT_HeapBlockS1_bi
0805038c t _ZL21CompareValues_Numericxx
080503d4 t _ZL21CompareValues_Numericyy
08078a44 t _ZL21EnableDisableSDDriverP38CLR_RT_HeapBlock_NativeEventDispatcherb
080407e0 t _ZL21EXTI15_10_IRQ_HandlerPv
20002884 d _ZL21g_adcInterruptEnabled
08076578 t _ZL21Initialize_Net_DriverP38CLR_RT_HeapBlock_NativeEventDispatchery
2000ca6c b _ZL21LastFamilyDiscrepancy
0808c680 t _ZL21OMAC_DISCO_SEQ_NUMBER
08096e58 t _ZL21OMAC_DISCO_SEQ_NUMBER
0808c8c8 t _ZL21OMAC_DISCO_SEQ_NUMBER
0808d77c t _ZL21OMAC_DISCO_SEQ_NUMBER
0808b81c t _ZL21OMAC_DISCO_SEQ_NUMBER
08094a2c t _ZL21OMAC_DISCO_SEQ_NUMBER
0808bf84 t _ZL21OMAC_DISCO_SEQ_NUMBER
0808bf18 t _ZL21OMAC_DISCO_SEQ_NUMBER
0808ae88 t _ZL21OMAC_DISCO_SEQ_NUMBER
08093920 t _ZL21OMAC_DISCO_SEQ_NUMBER
08096a74 t _ZL21OMAC_DISCO_SEQ_NUMBER
0808d1a8 t _ZL21OMAC_DISCO_SEQ_NUMBER
0808bdf4 t _ZL21OMAC_DISCO_SEQ_NUMBER
0808c4ec t _ZL21OMAC_DISCO_SEQ_NUMBER
0808ca18 t _ZL21OMAC_DISCO_SEQ_NUMBER
0809a828 t _ZL21OMAC_DISCO_SEQ_NUMBER
08096eb0 t _ZL21OMAC_DISCO_SEQ_NUMBER
080969b4 t _ZL21OMAC_DISCO_SEQ_NUMBER
0808a650 t _ZL21OMAC_DISCO_SEQ_NUMBER
0808d3c8 t _ZL21OMAC_DISCO_SEQ_NUMBER
0808d2ec t _ZL21OMAC_DISCO_SEQ_NUMBER
0808cb88 t _ZL21OMAC_DISCO_SEQ_NUMBER
0808ea10 t _ZL21OMAC_DISCO_SEQ_NUMBER
08094d24 t _ZL21OMAC_DISCO_SEQ_NUMBER
08095508 t _ZL21OMAC_DISCO_SEQ_NUMBER
0809492c t _ZL21OMAC_DISCO_SEQ_NUMBER
0808c21c t _ZL21OMAC_DISCO_SEQ_NUMBER
0808d730 t _ZL21OMAC_DISCO_SEQ_NUMBER
0808cdd0 t _ZL21OMAC_DISCO_SEQ_NUMBER
0808c1e4 t _ZL21OMAC_DISCO_SEQ_NUMBER
0808ce38 t _ZL21OMAC_DISCO_SEQ_NUMBER
0808d6c8 t _ZL21OMAC_DISCO_SEQ_NUMBER
0808cc54 t _ZL21OMAC_DISCO_SEQ_NUMBER
0808ceb8 t _ZL21OMAC_DISCO_SEQ_NUMBER
0808d658 t _ZL21OMAC_DISCO_SEQ_NUMBER
0808af68 t _ZL21OMAC_DISCO_SEQ_NUMBER
0808b8f0 t _ZL21OMAC_DISCO_SEQ_NUMBER
0808ce08 t _ZL21OMAC_DISCO_SEQ_NUMBER
080954a4 t _ZL21OMAC_DISCO_SEQ_NUMBER
0808cf80 t _ZL21OMAC_DISCO_SEQ_NUMBER
0808d5e0 t _ZL21OMAC_DISCO_SEQ_NUMBER
0808bd90 t _ZL21OMAC_DISCO_SEQ_NUMBER
0808a9dc t _ZL21OMAC_DISCO_SEQ_NUMBER
08096f10 t _ZL21OMAC_DISCO_SEQ_NUMBER
0808c7e4 t _ZL21OMAC_DISCO_SEQ_NUMBER
0808d464 t _ZL21OMAC_DISCO_SEQ_NUMBER
0808d4a4 t _ZL21OMAC_DISCO_SEQ_NUMBER
0808abc8 t _ZL21OMAC_DISCO_SEQ_NUMBER
0808bd30 t _ZL21OMAC_DISCO_SEQ_NUMBER
08096cfc t _ZL21OMAC_DISCO_SEQ_NUMBER
080952b4 t _ZL21OMAC_DISCO_SEQ_NUMBER
20004d68 b _ZL21pwr_hsi_clock_measure
0808ac60 t _ZL22c_CLR_HW_Button_Raw_B0
08094db8 t _ZL22c_CLR_HW_Button_Raw_B0
080939b8 t _ZL22c_CLR_HW_Button_Raw_B0
0808af20 t _ZL22c_CLR_HW_Button_Raw_B0
080949c0 t _ZL22c_CLR_HW_Button_Raw_B0
0808eaa8 t _ZL22c_CLR_HW_Button_Raw_B0
08095348 t _ZL22c_CLR_HW_Button_Raw_B0
0808b000 t _ZL22c_CLR_HW_Button_Raw_B0
0808b8b0 t _ZL22c_CLR_HW_Button_Raw_B0
0808cab0 t _ZL22c_CLR_HW_Button_Raw_B0
08094ac0 t _ZL22c_CLR_HW_Button_Raw_B0
0808aa70 t _ZL22c_CLR_HW_Button_Raw_B0
0808b004 t _ZL22c_CLR_HW_Button_Raw_B1
0808eaac t _ZL22c_CLR_HW_Button_Raw_B1
08094dbc t _ZL22c_CLR_HW_Button_Raw_B1
0809534c t _ZL22c_CLR_HW_Button_Raw_B1
0808ac64 t _ZL22c_CLR_HW_Button_Raw_B1
080939bc t _ZL22c_CLR_HW_Button_Raw_B1
0808aa74 t _ZL22c_CLR_HW_Button_Raw_B1
080949c4 t _ZL22c_CLR_HW_Button_Raw_B1
0808b8b4 t _ZL22c_CLR_HW_Button_Raw_B1
0808af24 t _ZL22c_CLR_HW_Button_Raw_B1
0808cab4 t _ZL22c_CLR_HW_Button_Raw_B1
08094ac4 t _ZL22c_CLR_HW_Button_Raw_B1
0808ac68 t _ZL22c_CLR_HW_Button_Raw_B2
0808af28 t _ZL22c_CLR_HW_Button_Raw_B2
08095350 t _ZL22c_CLR_HW_Button_Raw_B2
0808b008 t _ZL22c_CLR_HW_Button_Raw_B2
0808aa78 t _ZL22c_CLR_HW_Button_Raw_B2
0808cab8 t _ZL22c_CLR_HW_Button_Raw_B2
080949c8 t _ZL22c_CLR_HW_Button_Raw_B2
080939c0 t _ZL22c_CLR_HW_Button_Raw_B2
0808eab0 t _ZL22c_CLR_HW_Button_Raw_B2
08094dc0 t _ZL22c_CLR_HW_Button_Raw_B2
08094ac8 t _ZL22c_CLR_HW_Button_Raw_B2
0808b8b8 t _ZL22c_CLR_HW_Button_Raw_B2
0808af2c t _ZL22c_CLR_HW_Button_Raw_B3
0808ac6c t _ZL22c_CLR_HW_Button_Raw_B3
080939c4 t _ZL22c_CLR_HW_Button_Raw_B3
0808b8bc t _ZL22c_CLR_HW_Button_Raw_B3
08094dc4 t _ZL22c_CLR_HW_Button_Raw_B3
0808aa7c t _ZL22c_CLR_HW_Button_Raw_B3
0808cabc t _ZL22c_CLR_HW_Button_Raw_B3
08095354 t _ZL22c_CLR_HW_Button_Raw_B3
0808b00c t _ZL22c_CLR_HW_Button_Raw_B3
080949cc t _ZL22c_CLR_HW_Button_Raw_B3
0808eab4 t _ZL22c_CLR_HW_Button_Raw_B3
08094acc t _ZL22c_CLR_HW_Button_Raw_B3
080939c8 t _ZL22c_CLR_HW_Button_Raw_B4
0808ac70 t _ZL22c_CLR_HW_Button_Raw_B4
08094dc8 t _ZL22c_CLR_HW_Button_Raw_B4
08094ad0 t _ZL22c_CLR_HW_Button_Raw_B4
0808aa80 t _ZL22c_CLR_HW_Button_Raw_B4
0808af30 t _ZL22c_CLR_HW_Button_Raw_B4
08095358 t _ZL22c_CLR_HW_Button_Raw_B4
0808cac0 t _ZL22c_CLR_HW_Button_Raw_B4
0808eab8 t _ZL22c_CLR_HW_Button_Raw_B4
0808b010 t _ZL22c_CLR_HW_Button_Raw_B4
080949d0 t _ZL22c_CLR_HW_Button_Raw_B4
0808b8c0 t _ZL22c_CLR_HW_Button_Raw_B4
0808af34 t _ZL22c_CLR_HW_Button_Raw_B5
0809535c t _ZL22c_CLR_HW_Button_Raw_B5
0808ac74 t _ZL22c_CLR_HW_Button_Raw_B5
080949d4 t _ZL22c_CLR_HW_Button_Raw_B5
0808eabc t _ZL22c_CLR_HW_Button_Raw_B5
0808aa84 t _ZL22c_CLR_HW_Button_Raw_B5
0808cac4 t _ZL22c_CLR_HW_Button_Raw_B5
0808b8c4 t _ZL22c_CLR_HW_Button_Raw_B5
0808b014 t _ZL22c_CLR_HW_Button_Raw_B5
08094ad4 t _ZL22c_CLR_HW_Button_Raw_B5
080939cc t _ZL22c_CLR_HW_Button_Raw_B5
08094dcc t _ZL22c_CLR_HW_Button_Raw_B5
080939d0 t _ZL22c_CLR_HW_Button_Raw_B6
0808eac0 t _ZL22c_CLR_HW_Button_Raw_B6
0808cac8 t _ZL22c_CLR_HW_Button_Raw_B6
08094ad8 t _ZL22c_CLR_HW_Button_Raw_B6
0808ac78 t _ZL22c_CLR_HW_Button_Raw_B6
080949d8 t _ZL22c_CLR_HW_Button_Raw_B6
0808b8c8 t _ZL22c_CLR_HW_Button_Raw_B6
0808af38 t _ZL22c_CLR_HW_Button_Raw_B6
0808aa88 t _ZL22c_CLR_HW_Button_Raw_B6
08094dd0 t _ZL22c_CLR_HW_Button_Raw_B6
08095360 t _ZL22c_CLR_HW_Button_Raw_B6
0808b018 t _ZL22c_CLR_HW_Button_Raw_B6
08094adc t _ZL22c_CLR_HW_Button_Raw_B7
0808af3c t _ZL22c_CLR_HW_Button_Raw_B7
08094dd4 t _ZL22c_CLR_HW_Button_Raw_B7
0808aa8c t _ZL22c_CLR_HW_Button_Raw_B7
0808b01c t _ZL22c_CLR_HW_Button_Raw_B7
0808ac7c t _ZL22c_CLR_HW_Button_Raw_B7
0808cacc t _ZL22c_CLR_HW_Button_Raw_B7
0808b8cc t _ZL22c_CLR_HW_Button_Raw_B7
080939d4 t _ZL22c_CLR_HW_Button_Raw_B7
0808eac4 t _ZL22c_CLR_HW_Button_Raw_B7
08095364 t _ZL22c_CLR_HW_Button_Raw_B7
080949dc t _ZL22c_CLR_HW_Button_Raw_B7
08095368 t _ZL22c_CLR_HW_Button_Raw_B8
0808af40 t _ZL22c_CLR_HW_Button_Raw_B8
080949e0 t _ZL22c_CLR_HW_Button_Raw_B8
0808ac80 t _ZL22c_CLR_HW_Button_Raw_B8
08094ae0 t _ZL22c_CLR_HW_Button_Raw_B8
0808b020 t _ZL22c_CLR_HW_Button_Raw_B8
0808aa90 t _ZL22c_CLR_HW_Button_Raw_B8
08094dd8 t _ZL22c_CLR_HW_Button_Raw_B8
0808eac8 t _ZL22c_CLR_HW_Button_Raw_B8
080939d8 t _ZL22c_CLR_HW_Button_Raw_B8
0808b8d0 t _ZL22c_CLR_HW_Button_Raw_B8
0808cad0 t _ZL22c_CLR_HW_Button_Raw_B8
0808aa94 t _ZL22c_CLR_HW_Button_Raw_B9
080939dc t _ZL22c_CLR_HW_Button_Raw_B9
0808af44 t _ZL22c_CLR_HW_Button_Raw_B9
0808cad4 t _ZL22c_CLR_HW_Button_Raw_B9
080949e4 t _ZL22c_CLR_HW_Button_Raw_B9
08094ae4 t _ZL22c_CLR_HW_Button_Raw_B9
08094ddc t _ZL22c_CLR_HW_Button_Raw_B9
0808eacc t _ZL22c_CLR_HW_Button_Raw_B9
0808b8d4 t _ZL22c_CLR_HW_Button_Raw_B9
0808b024 t _ZL22c_CLR_HW_Button_Raw_B9
0809536c t _ZL22c_CLR_HW_Button_Raw_B9
0808ac84 t _ZL22c_CLR_HW_Button_Raw_B9
0809533c t _ZL22c_CLR_HW_Button_Select
0808ea9c t _ZL22c_CLR_HW_Button_Select
0808ac54 t _ZL22c_CLR_HW_Button_Select
080939ac t _ZL22c_CLR_HW_Button_Select
08094dac t _ZL22c_CLR_HW_Button_Select
0808caa4 t _ZL22c_CLR_HW_Button_Select
0808aff4 t _ZL22c_CLR_HW_Button_Select
0808af14 t _ZL22c_CLR_HW_Button_Select
080949b4 t _ZL22c_CLR_HW_Button_Select
0808aa64 t _ZL22c_CLR_HW_Button_Select
0808b8a4 t _ZL22c_CLR_HW_Button_Select
08094ab4 t _ZL22c_CLR_HW_Button_Select
0808d35c t _ZL22c_CLR_RT_Trace_Verbose
0808afd4 t _ZL22c_CLR_RT_Trace_Verbose
0809398c t _ZL22c_CLR_RT_Trace_Verbose
0808ea7c t _ZL22c_CLR_RT_Trace_Verbose
0808aef4 t _ZL22c_CLR_RT_Trace_Verbose
0808c6f4 t _ZL22c_CLR_RT_Trace_Verbose
0808ca84 t _ZL22c_CLR_RT_Trace_Verbose
0808b884 t _ZL22c_CLR_RT_Trace_Verbose
08094a94 t _ZL22c_CLR_RT_Trace_Verbose
0808d21c t _ZL22c_CLR_RT_Trace_Verbose
0808ac34 t _ZL22c_CLR_RT_Trace_Verbose
0808cff4 t _ZL22c_CLR_RT_Trace_Verbose
0808aa44 t _ZL22c_CLR_RT_Trace_Verbose
0808cbfc t _ZL22c_CLR_RT_Trace_Verbose
0808c55c t _ZL22c_CLR_RT_Trace_Verbose
08094d8c t _ZL22c_CLR_RT_Trace_Verbose
0808c854 t _ZL22c_CLR_RT_Trace_Verbose
08094994 t _ZL22c_CLR_RT_Trace_Verbose
0809531c t _ZL22c_CLR_RT_Trace_Verbose
0808f34c t _ZL22c_CLR_StringTable_Data
0808eae0 t _ZL22c_CLR_StringTable_Size
080505ac t _ZL22CompareValues_PointersPK16CLR_RT_HeapBlockS1_
08077a30 t _ZL22EnableDisableADCDriverP38CLR_RT_HeapBlock_NativeEventDispatcherb
08071a20 t _ZL22EnableDisableEventSinkP38CLR_RT_HeapBlock_NativeEventDispatcherb
20006ac8 b _ZL22g_RealTimeTimerEnalbed
08094ab8 t _ZL23c_CLR_HW_Button_Channel
08094db0 t _ZL23c_CLR_HW_Button_Channel
0808af18 t _ZL23c_CLR_HW_Button_Channel
08095340 t _ZL23c_CLR_HW_Button_Channel
0808aa68 t _ZL23c_CLR_HW_Button_Channel
0808ac58 t _ZL23c_CLR_HW_Button_Channel
0808aff8 t _ZL23c_CLR_HW_Button_Channel
0808eaa0 t _ZL23c_CLR_HW_Button_Channel
0808caa8 t _ZL23c_CLR_HW_Button_Channel
0808b8a8 t _ZL23c_CLR_HW_Button_Channel
080939b0 t _ZL23c_CLR_HW_Button_Channel
080949b8 t _ZL23c_CLR_HW_Button_Channel
08094998 t _ZL23c_CLR_RT_Trace_Annoying
0808c858 t _ZL23c_CLR_RT_Trace_Annoying
0808ac38 t _ZL23c_CLR_RT_Trace_Annoying
08095320 t _ZL23c_CLR_RT_Trace_Annoying
0808ea80 t _ZL23c_CLR_RT_Trace_Annoying
08093990 t _ZL23c_CLR_RT_Trace_Annoying
0808d360 t _ZL23c_CLR_RT_Trace_Annoying
0808ca88 t _ZL23c_CLR_RT_Trace_Annoying
0808c6f8 t _ZL23c_CLR_RT_Trace_Annoying
0808aef8 t _ZL23c_CLR_RT_Trace_Annoying
0808b888 t _ZL23c_CLR_RT_Trace_Annoying
08094d90 t _ZL23c_CLR_RT_Trace_Annoying
08094a98 t _ZL23c_CLR_RT_Trace_Annoying
0808afd8 t _ZL23c_CLR_RT_Trace_Annoying
0808c560 t _ZL23c_CLR_RT_Trace_Annoying
0808cc00 t _ZL23c_CLR_RT_Trace_Annoying
0808aa48 t _ZL23c_CLR_RT_Trace_Annoying
0808d220 t _ZL23c_CLR_RT_Trace_Annoying
0808cff8 t _ZL23c_CLR_RT_Trace_Annoying
0808d6e8 t _ZL23CummulativeDaysForMonth
20006b50 b _ZL23g_Boot_RAMConstants_CRC
0808d455 t _ZL23g_CountOfHardwareTimers
080954fb t _ZL23g_CountOfHardwareTimers
0808d3b8 t _ZL23g_CountOfHardwareTimers
0809491f t _ZL23g_CountOfHardwareTimers
0808bf76 t _ZL23g_CountOfHardwareTimers
0809a818 t _ZL23g_CountOfHardwareTimers
08094d14 t _ZL23g_CountOfHardwareTimers
0808bd81 t _ZL23g_CountOfHardwareTimers
0808abbb t _ZL23g_CountOfHardwareTimers
08096f00 t _ZL23g_CountOfHardwareTimers
0808a9cc t _ZL23g_CountOfHardwareTimers
0808d6ba t _ZL23g_CountOfHardwareTimers
080969a6 t _ZL23g_CountOfHardwareTimers
0808a640 t _ZL23g_CountOfHardwareTimers
0808b80f t _ZL23g_CountOfHardwareTimers
0808c20c t _ZL23g_CountOfHardwareTimers
080952a4 t _ZL23g_CountOfHardwareTimers
0808ea00 t _ZL23g_CountOfHardwareTimers
0808cc45 t _ZL23g_CountOfHardwareTimers
0808cea8 t _ZL23g_CountOfHardwareTimers
0808d494 t _ZL23g_CountOfHardwareTimers
0808d76f t _ZL23g_CountOfHardwareTimers
08093910 t _ZL23g_CountOfHardwareTimers
0808c8b8 t _ZL23g_CountOfHardwareTimers
08096a64 t _ZL23g_CountOfHardwareTimers
08096ea0 t _ZL23g_CountOfHardwareTimers
0808b8e0 t _ZL23g_CountOfHardwareTimers
0808ae78 t _ZL23g_CountOfHardwareTimers
08096cec t _ZL23g_CountOfHardwareTimers
0808d649 t _ZL23g_CountOfHardwareTimers
0808bd20 t _ZL23g_CountOfHardwareTimers
08095494 t _ZL23g_CountOfHardwareTimers
0808c1d5 t _ZL23g_CountOfHardwareTimers
0808af58 t _ZL23g_CountOfHardwareTimers
0808d5d3 t _ZL23g_CountOfHardwareTimers
08096e48 t _ZL23g_CountOfHardwareTimers
08094a1f t _ZL23g_CountOfHardwareTimers
0808ce28 t _ZL23g_CountOfHardwareTimers
0808bde4 t _ZL23g_CountOfHardwareTimers
08073264 t _ZL23HWPORT_GPIO_CheckPortIdbj
0808d780 t _ZL23OMAC_HW_ACK_DELAY_MICRO
0808b8f4 t _ZL23OMAC_HW_ACK_DELAY_MICRO
0808d5e4 t _ZL23OMAC_HW_ACK_DELAY_MICRO
0808c1e8 t _ZL23OMAC_HW_ACK_DELAY_MICRO
0808d2f0 t _ZL23OMAC_HW_ACK_DELAY_MICRO
080954a8 t _ZL23OMAC_HW_ACK_DELAY_MICRO
0808c7e8 t _ZL23OMAC_HW_ACK_DELAY_MICRO
0808b820 t _ZL23OMAC_HW_ACK_DELAY_MICRO
0808d1ac t _ZL23OMAC_HW_ACK_DELAY_MICRO
0808ae8c t _ZL23OMAC_HW_ACK_DELAY_MICRO
0808c8cc t _ZL23OMAC_HW_ACK_DELAY_MICRO
08093924 t _ZL23OMAC_HW_ACK_DELAY_MICRO
0808ce0c t _ZL23OMAC_HW_ACK_DELAY_MICRO
0808d4a8 t _ZL23OMAC_HW_ACK_DELAY_MICRO
0808bf88 t _ZL23OMAC_HW_ACK_DELAY_MICRO
0808cb8c t _ZL23OMAC_HW_ACK_DELAY_MICRO
08096a78 t _ZL23OMAC_HW_ACK_DELAY_MICRO
0808cc58 t _ZL23OMAC_HW_ACK_DELAY_MICRO
0808cebc t _ZL23OMAC_HW_ACK_DELAY_MICRO
08096d00 t _ZL23OMAC_HW_ACK_DELAY_MICRO
080952b8 t _ZL23OMAC_HW_ACK_DELAY_MICRO
0808d65c t _ZL23OMAC_HW_ACK_DELAY_MICRO
0808a9e0 t _ZL23OMAC_HW_ACK_DELAY_MICRO
0808c4f0 t _ZL23OMAC_HW_ACK_DELAY_MICRO
08096eb4 t _ZL23OMAC_HW_ACK_DELAY_MICRO
0808af6c t _ZL23OMAC_HW_ACK_DELAY_MICRO
0808bdf8 t _ZL23OMAC_HW_ACK_DELAY_MICRO
0808bd34 t _ZL23OMAC_HW_ACK_DELAY_MICRO
080969b8 t _ZL23OMAC_HW_ACK_DELAY_MICRO
08096e5c t _ZL23OMAC_HW_ACK_DELAY_MICRO
0808d3cc t _ZL23OMAC_HW_ACK_DELAY_MICRO
0808ea14 t _ZL23OMAC_HW_ACK_DELAY_MICRO
0808d468 t _ZL23OMAC_HW_ACK_DELAY_MICRO
0808a654 t _ZL23OMAC_HW_ACK_DELAY_MICRO
08094a30 t _ZL23OMAC_HW_ACK_DELAY_MICRO
0808cf84 t _ZL23OMAC_HW_ACK_DELAY_MICRO
0808ce3c t _ZL23OMAC_HW_ACK_DELAY_MICRO
0809550c t _ZL23OMAC_HW_ACK_DELAY_MICRO
0808abcc t _ZL23OMAC_HW_ACK_DELAY_MICRO
08096f14 t _ZL23OMAC_HW_ACK_DELAY_MICRO
0809a82c t _ZL23OMAC_HW_ACK_DELAY_MICRO
0808cdd4 t _ZL23OMAC_HW_ACK_DELAY_MICRO
0808d6cc t _ZL23OMAC_HW_ACK_DELAY_MICRO
0808ca1c t _ZL23OMAC_HW_ACK_DELAY_MICRO
0808bf1c t _ZL23OMAC_HW_ACK_DELAY_MICRO
08094930 t _ZL23OMAC_HW_ACK_DELAY_MICRO
0808c220 t _ZL23OMAC_HW_ACK_DELAY_MICRO
0808d734 t _ZL23OMAC_HW_ACK_DELAY_MICRO
0808c684 t _ZL23OMAC_HW_ACK_DELAY_MICRO
08094d28 t _ZL23OMAC_HW_ACK_DELAY_MICRO
0808bd94 t _ZL23OMAC_HW_ACK_DELAY_MICRO
0808ca8c t _ZL24c_CLR_RT_Trace_Obnoxious
0808ea84 t _ZL24c_CLR_RT_Trace_Obnoxious
0808d224 t _ZL24c_CLR_RT_Trace_Obnoxious
08095324 t _ZL24c_CLR_RT_Trace_Obnoxious
0808cffc t _ZL24c_CLR_RT_Trace_Obnoxious
0808aa4c t _ZL24c_CLR_RT_Trace_Obnoxious
0808d364 t _ZL24c_CLR_RT_Trace_Obnoxious
0809499c t _ZL24c_CLR_RT_Trace_Obnoxious
0808b88c t _ZL24c_CLR_RT_Trace_Obnoxious
08094d94 t _ZL24c_CLR_RT_Trace_Obnoxious
0808c6fc t _ZL24c_CLR_RT_Trace_Obnoxious
08094a9c t _ZL24c_CLR_RT_Trace_Obnoxious
0808cc04 t _ZL24c_CLR_RT_Trace_Obnoxious
0808c564 t _ZL24c_CLR_RT_Trace_Obnoxious
0808ac3c t _ZL24c_CLR_RT_Trace_Obnoxious
08093994 t _ZL24c_CLR_RT_Trace_Obnoxious
0808c85c t _ZL24c_CLR_RT_Trace_Obnoxious
0808afdc t _ZL24c_CLR_RT_Trace_Obnoxious
0808aefc t _ZL24c_CLR_RT_Trace_Obnoxious
0808eae4 t _ZL24c_CLR_StringTable_Lookup
0808b044 t _ZL24c_Messaging_Lookup_Reply
080765b0 t _ZL24EnableDisable_Net_DriverP38CLR_RT_HeapBlock_NativeEventDispatcherb
2000cb90 b _ZL24g_ADC_Driver_Initialized
0808d774 t _ZL24g_HardwareTimerFrequency
0808ceb0 t _ZL24g_HardwareTimerFrequency
0808d650 t _ZL24g_HardwareTimerFrequency
08096a6c t _ZL24g_HardwareTimerFrequency
0808d1a0 t _ZL24g_HardwareTimerFrequency
0808d3c0 t _ZL24g_HardwareTimerFrequency
0808b8e8 t _ZL24g_HardwareTimerFrequency
0808af60 t _ZL24g_HardwareTimerFrequency
0808ce00 t _ZL24g_HardwareTimerFrequency
0808bdec t _ZL24g_HardwareTimerFrequency
0808cb80 t _ZL24g_HardwareTimerFrequency
0808cc4c t _ZL24g_HardwareTimerFrequency
0808c8c0 t _ZL24g_HardwareTimerFrequency
080969ac t _ZL24g_HardwareTimerFrequency
0809549c t _ZL24g_HardwareTimerFrequency
0808bf7c t _ZL24g_HardwareTimerFrequency
0808ca10 t _ZL24g_HardwareTimerFrequency
0808d6c0 t _ZL24g_HardwareTimerFrequency
08096e50 t _ZL24g_HardwareTimerFrequency
0808d5d8 t _ZL24g_HardwareTimerFrequency
0808c1dc t _ZL24g_HardwareTimerFrequency
0808c4e4 t _ZL24g_HardwareTimerFrequency
0808c7dc t _ZL24g_HardwareTimerFrequency
0808ae80 t _ZL24g_HardwareTimerFrequency
08093918 t _ZL24g_HardwareTimerFrequency
0808b814 t _ZL24g_HardwareTimerFrequency
0808bd28 t _ZL24g_HardwareTimerFrequency
0808bf10 t _ZL24g_HardwareTimerFrequency
08096cf4 t _ZL24g_HardwareTimerFrequency
08094924 t _ZL24g_HardwareTimerFrequency
0808d2e4 t _ZL24g_HardwareTimerFrequency
0808d49c t _ZL24g_HardwareTimerFrequency
08095500 t _ZL24g_HardwareTimerFrequency
08096ea8 t _ZL24g_HardwareTimerFrequency
080952ac t _ZL24g_HardwareTimerFrequency
0808a9d4 t _ZL24g_HardwareTimerFrequency
0808cdc8 t _ZL24g_HardwareTimerFrequency
0808ea08 t _ZL24g_HardwareTimerFrequency
0808a648 t _ZL24g_HardwareTimerFrequency
08094a24 t _ZL24g_HardwareTimerFrequency
0808ce30 t _ZL24g_HardwareTimerFrequency
0808c214 t _ZL24g_HardwareTimerFrequency
08096f08 t _ZL24g_HardwareTimerFrequency
08094d1c t _ZL24g_HardwareTimerFrequency
0808abc0 t _ZL24g_HardwareTimerFrequency
0808d45c t _ZL24g_HardwareTimerFrequency
0808cf78 t _ZL24g_HardwareTimerFrequency
0808c678 t _ZL24g_HardwareTimerFrequency
0808bd88 t _ZL24g_HardwareTimerFrequency
0808d728 t _ZL24g_HardwareTimerFrequency
0809a820 t _ZL24g_HardwareTimerFrequency
08096ed0 t _ZL24g_SDInteropDriverMethods
08075444 t _ZL24InitializeUsartErrorSinkP38CLR_RT_HeapBlock_NativeEventDispatchery
0808ac5c t _ZL25c_CLR_HW_Button_Backlight
0808caac t _ZL25c_CLR_HW_Button_Backlight
0808affc t _ZL25c_CLR_HW_Button_Backlight
08094db4 t _ZL25c_CLR_HW_Button_Backlight
0808eaa4 t _ZL25c_CLR_HW_Button_Backlight
08094abc t _ZL25c_CLR_HW_Button_Backlight
0808aa6c t _ZL25c_CLR_HW_Button_Backlight
0808af1c t _ZL25c_CLR_HW_Button_Backlight
080939b4 t _ZL25c_CLR_HW_Button_Backlight
0808b8ac t _ZL25c_CLR_HW_Button_Backlight
08095344 t _ZL25c_CLR_HW_Button_Backlight
080949bc t _ZL25c_CLR_HW_Button_Backlight
080753f8 t _ZL25CleanupUsartDataEventSinkP38CLR_RT_HeapBlock_NativeEventDispatcher
0808ea64 t _ZL25CLR_MaxStreamSize_Strings
0808cfdc t _ZL25CLR_MaxStreamSize_Strings
08094a7c t _ZL25CLR_MaxStreamSize_Strings
0808c544 t _ZL25CLR_MaxStreamSize_Strings
08095304 t _ZL25CLR_MaxStreamSize_Strings
0808c83c t _ZL25CLR_MaxStreamSize_Strings
0808ac1c t _ZL25CLR_MaxStreamSize_Strings
0808c6dc t _ZL25CLR_MaxStreamSize_Strings
0808b86c t _ZL25CLR_MaxStreamSize_Strings
0808aedc t _ZL25CLR_MaxStreamSize_Strings
08093974 t _ZL25CLR_MaxStreamSize_Strings
0808cbe4 t _ZL25CLR_MaxStreamSize_Strings
0808aa2c t _ZL25CLR_MaxStreamSize_Strings
0808ca6c t _ZL25CLR_MaxStreamSize_Strings
0809497c t _ZL25CLR_MaxStreamSize_Strings
0808d344 t _ZL25CLR_MaxStreamSize_Strings
08094d74 t _ZL25CLR_MaxStreamSize_Strings
0808afbc t _ZL25CLR_MaxStreamSize_Strings
0808d204 t _ZL25CLR_MaxStreamSize_Strings
0808cbc8 t _ZL25CLR_MaxStreamSize_TypeDef
0808ca50 t _ZL25CLR_MaxStreamSize_TypeDef
08094960 t _ZL25CLR_MaxStreamSize_TypeDef
0808c528 t _ZL25CLR_MaxStreamSize_TypeDef
0808aa10 t _ZL25CLR_MaxStreamSize_TypeDef
0808afa0 t _ZL25CLR_MaxStreamSize_TypeDef
08094d58 t _ZL25CLR_MaxStreamSize_TypeDef
0808b850 t _ZL25CLR_MaxStreamSize_TypeDef
0808ea48 t _ZL25CLR_MaxStreamSize_TypeDef
0808aec0 t _ZL25CLR_MaxStreamSize_TypeDef
0808c820 t _ZL25CLR_MaxStreamSize_TypeDef
0808d328 t _ZL25CLR_MaxStreamSize_TypeDef
0808d1e8 t _ZL25CLR_MaxStreamSize_TypeDef
0808cfc0 t _ZL25CLR_MaxStreamSize_TypeDef
0808c6c0 t _ZL25CLR_MaxStreamSize_TypeDef
08094a60 t _ZL25CLR_MaxStreamSize_TypeDef
08093958 t _ZL25CLR_MaxStreamSize_TypeDef
0808ac00 t _ZL25CLR_MaxStreamSize_TypeDef
080952e8 t _ZL25CLR_MaxStreamSize_TypeDef
0808ca44 t _ZL25CLR_MaxStreamSize_TypeRef
0808b844 t _ZL25CLR_MaxStreamSize_TypeRef
0808aeb4 t _ZL25CLR_MaxStreamSize_TypeRef
0808d1dc t _ZL25CLR_MaxStreamSize_TypeRef
0809394c t _ZL25CLR_MaxStreamSize_TypeRef
080952dc t _ZL25CLR_MaxStreamSize_TypeRef
0808c51c t _ZL25CLR_MaxStreamSize_TypeRef
0808cbbc t _ZL25CLR_MaxStreamSize_TypeRef
0808c814 t _ZL25CLR_MaxStreamSize_TypeRef
08094a54 t _ZL25CLR_MaxStreamSize_TypeRef
0808abf4 t _ZL25CLR_MaxStreamSize_TypeRef
0808aa04 t _ZL25CLR_MaxStreamSize_TypeRef
08094d4c t _ZL25CLR_MaxStreamSize_TypeRef
0808cfb4 t _ZL25CLR_MaxStreamSize_TypeRef
0808ea3c t _ZL25CLR_MaxStreamSize_TypeRef
08094954 t _ZL25CLR_MaxStreamSize_TypeRef
0808c6b4 t _ZL25CLR_MaxStreamSize_TypeRef
0808af94 t _ZL25CLR_MaxStreamSize_TypeRef
0808d31c t _ZL25CLR_MaxStreamSize_TypeRef
08096e78 t _ZL25g_AdcInteropDriverMethods
0808b02c t _ZL26c_Messaging_Lookup_Request
080350a4 t _ZL26CleanupRealTimeTimerDriverP38CLR_RT_HeapBlock_NativeEventDispatcher
0808c844 t _ZL26CLR_MaxStreamSize_ByteCode
08094984 t _ZL26CLR_MaxStreamSize_ByteCode
0808afc4 t _ZL26CLR_MaxStreamSize_ByteCode
0808aee4 t _ZL26CLR_MaxStreamSize_ByteCode
0808c6e4 t _ZL26CLR_MaxStreamSize_ByteCode
0808cfe4 t _ZL26CLR_MaxStreamSize_ByteCode
08094d7c t _ZL26CLR_MaxStreamSize_ByteCode
0808d20c t _ZL26CLR_MaxStreamSize_ByteCode
0808ac24 t _ZL26CLR_MaxStreamSize_ByteCode
0808cbec t _ZL26CLR_MaxStreamSize_ByteCode
0808ca74 t _ZL26CLR_MaxStreamSize_ByteCode
0808aa34 t _ZL26CLR_MaxStreamSize_ByteCode
0808b874 t _ZL26CLR_MaxStreamSize_ByteCode
0808c54c t _ZL26CLR_MaxStreamSize_ByteCode
0808ea6c t _ZL26CLR_MaxStreamSize_ByteCode
0809397c t _ZL26CLR_MaxStreamSize_ByteCode
0809530c t _ZL26CLR_MaxStreamSize_ByteCode
08094a84 t _ZL26CLR_MaxStreamSize_ByteCode
0808d34c t _ZL26CLR_MaxStreamSize_ByteCode
0808d1ec t _ZL26CLR_MaxStreamSize_FieldDef
0808ea4c t _ZL26CLR_MaxStreamSize_FieldDef
08094964 t _ZL26CLR_MaxStreamSize_FieldDef
0808b854 t _ZL26CLR_MaxStreamSize_FieldDef
0808c824 t _ZL26CLR_MaxStreamSize_FieldDef
0808d32c t _ZL26CLR_MaxStreamSize_FieldDef
08094a64 t _ZL26CLR_MaxStreamSize_FieldDef
0808c6c4 t _ZL26CLR_MaxStreamSize_FieldDef
0808aa14 t _ZL26CLR_MaxStreamSize_FieldDef
0808c52c t _ZL26CLR_MaxStreamSize_FieldDef
0808ca54 t _ZL26CLR_MaxStreamSize_FieldDef
0808cfc4 t _ZL26CLR_MaxStreamSize_FieldDef
080952ec t _ZL26CLR_MaxStreamSize_FieldDef
0809395c t _ZL26CLR_MaxStreamSize_FieldDef
0808ac04 t _ZL26CLR_MaxStreamSize_FieldDef
0808afa4 t _ZL26CLR_MaxStreamSize_FieldDef
0808cbcc t _ZL26CLR_MaxStreamSize_FieldDef
0808aec4 t _ZL26CLR_MaxStreamSize_FieldDef
08094d5c t _ZL26CLR_MaxStreamSize_FieldDef
08094a58 t _ZL26CLR_MaxStreamSize_FieldRef
0808c520 t _ZL26CLR_MaxStreamSize_FieldRef
08093950 t _ZL26CLR_MaxStreamSize_FieldRef
0808c6b8 t _ZL26CLR_MaxStreamSize_FieldRef
0808b848 t _ZL26CLR_MaxStreamSize_FieldRef
0808abf8 t _ZL26CLR_MaxStreamSize_FieldRef
0808ea40 t _ZL26CLR_MaxStreamSize_FieldRef
08094958 t _ZL26CLR_MaxStreamSize_FieldRef
0808ca48 t _ZL26CLR_MaxStreamSize_FieldRef
0808d1e0 t _ZL26CLR_MaxStreamSize_FieldRef
0808c818 t _ZL26CLR_MaxStreamSize_FieldRef
0808cbc0 t _ZL26CLR_MaxStreamSize_FieldRef
080952e0 t _ZL26CLR_MaxStreamSize_FieldRef
0808af98 t _ZL26CLR_MaxStreamSize_FieldRef
0808d320 t _ZL26CLR_MaxStreamSize_FieldRef
0808aeb8 t _ZL26CLR_MaxStreamSize_FieldRef
0808cfb8 t _ZL26CLR_MaxStreamSize_FieldRef
0808aa08 t _ZL26CLR_MaxStreamSize_FieldRef
08094d50 t _ZL26CLR_MaxStreamSize_FieldRef
0808cbd8 t _ZL26CLR_MaxStreamSize_TypeSpec
0808c6d0 t _ZL26CLR_MaxStreamSize_TypeSpec
08094970 t _ZL26CLR_MaxStreamSize_TypeSpec
0808b860 t _ZL26CLR_MaxStreamSize_TypeSpec
0808aa20 t _ZL26CLR_MaxStreamSize_TypeSpec
080952f8 t _ZL26CLR_MaxStreamSize_TypeSpec
0808d1f8 t _ZL26CLR_MaxStreamSize_TypeSpec
08094d68 t _ZL26CLR_MaxStreamSize_TypeSpec
0808cfd0 t _ZL26CLR_MaxStreamSize_TypeSpec
08094a70 t _ZL26CLR_MaxStreamSize_TypeSpec
0808d338 t _ZL26CLR_MaxStreamSize_TypeSpec
0808aed0 t _ZL26CLR_MaxStreamSize_TypeSpec
0808ca60 t _ZL26CLR_MaxStreamSize_TypeSpec
0808c830 t _ZL26CLR_MaxStreamSize_TypeSpec
0808ea58 t _ZL26CLR_MaxStreamSize_TypeSpec
08093968 t _ZL26CLR_MaxStreamSize_TypeSpec
0808c538 t _ZL26CLR_MaxStreamSize_TypeSpec
0808ac10 t _ZL26CLR_MaxStreamSize_TypeSpec
0808afb0 t _ZL26CLR_MaxStreamSize_TypeSpec
0802c284 t _ZL26DebuggerPort_SSL_GetCACertPPhPj
20004d6c b _ZL26pwr_hsi_clock_measure_orig
0808ea50 t _ZL27CLR_MaxStreamSize_MethodDef
08094968 t _ZL27CLR_MaxStreamSize_MethodDef
0808aec8 t _ZL27CLR_MaxStreamSize_MethodDef
0808cbd0 t _ZL27CLR_MaxStreamSize_MethodDef
0808cfc8 t _ZL27CLR_MaxStreamSize_MethodDef
0808d1f0 t _ZL27CLR_MaxStreamSize_MethodDef
08094a68 t _ZL27CLR_MaxStreamSize_MethodDef
0808afa8 t _ZL27CLR_MaxStreamSize_MethodDef
0808c530 t _ZL27CLR_MaxStreamSize_MethodDef
0808ca58 t _ZL27CLR_MaxStreamSize_MethodDef
08094d60 t _ZL27CLR_MaxStreamSize_MethodDef
0808aa18 t _ZL27CLR_MaxStreamSize_MethodDef
080952f0 t _ZL27CLR_MaxStreamSize_MethodDef
0808c828 t _ZL27CLR_MaxStreamSize_MethodDef
0808ac08 t _ZL27CLR_MaxStreamSize_MethodDef
08093960 t _ZL27CLR_MaxStreamSize_MethodDef
0808b858 t _ZL27CLR_MaxStreamSize_MethodDef
0808c6c8 t _ZL27CLR_MaxStreamSize_MethodDef
0808d330 t _ZL27CLR_MaxStreamSize_MethodDef
0808af9c t _ZL27CLR_MaxStreamSize_MethodRef
0808c81c t _ZL27CLR_MaxStreamSize_MethodRef
0808aa0c t _ZL27CLR_MaxStreamSize_MethodRef
08094a5c t _ZL27CLR_MaxStreamSize_MethodRef
0808c524 t _ZL27CLR_MaxStreamSize_MethodRef
0808b84c t _ZL27CLR_MaxStreamSize_MethodRef
0808cfbc t _ZL27CLR_MaxStreamSize_MethodRef
0808cbc4 t _ZL27CLR_MaxStreamSize_MethodRef
0808c6bc t _ZL27CLR_MaxStreamSize_MethodRef
0808d1e4 t _ZL27CLR_MaxStreamSize_MethodRef
0808aebc t _ZL27CLR_MaxStreamSize_MethodRef
0808ea44 t _ZL27CLR_MaxStreamSize_MethodRef
0809495c t _ZL27CLR_MaxStreamSize_MethodRef
0808ca4c t _ZL27CLR_MaxStreamSize_MethodRef
0808abfc t _ZL27CLR_MaxStreamSize_MethodRef
0808d324 t _ZL27CLR_MaxStreamSize_MethodRef
080952e4 t _ZL27CLR_MaxStreamSize_MethodRef
08093954 t _ZL27CLR_MaxStreamSize_MethodRef
08094d54 t _ZL27CLR_MaxStreamSize_MethodRef
0808b864 t _ZL27CLR_MaxStreamSize_Resources
0808cbdc t _ZL27CLR_MaxStreamSize_Resources
0808afb4 t _ZL27CLR_MaxStreamSize_Resources
0808ac14 t _ZL27CLR_MaxStreamSize_Resources
0808ea5c t _ZL27CLR_MaxStreamSize_Resources
08094974 t _ZL27CLR_MaxStreamSize_Resources
08094a74 t _ZL27CLR_MaxStreamSize_Resources
0808aa24 t _ZL27CLR_MaxStreamSize_Resources
0808c6d4 t _ZL27CLR_MaxStreamSize_Resources
080952fc t _ZL27CLR_MaxStreamSize_Resources
0808cfd4 t _ZL27CLR_MaxStreamSize_Resources
0809396c t _ZL27CLR_MaxStreamSize_Resources
0808ca64 t _ZL27CLR_MaxStreamSize_Resources
0808d33c t _ZL27CLR_MaxStreamSize_Resources
0808d1fc t _ZL27CLR_MaxStreamSize_Resources
0808aed4 t _ZL27CLR_MaxStreamSize_Resources
0808c53c t _ZL27CLR_MaxStreamSize_Resources
0808c834 t _ZL27CLR_MaxStreamSize_Resources
08094d6c t _ZL27CLR_MaxStreamSize_Resources
080754a0 t _ZL27EnableDisableUsartErrorSinkP38CLR_RT_HeapBlock_NativeEventDispatcherb
08096cbc t _ZL27g_CLR_MAC_MAC_DriverMethods
0808aa1c t _ZL28CLR_MaxStreamSize_Attributes
08093964 t _ZL28CLR_MaxStreamSize_Attributes
080952f4 t _ZL28CLR_MaxStreamSize_Attributes
0808d1f4 t _ZL28CLR_MaxStreamSize_Attributes
0808aecc t _ZL28CLR_MaxStreamSize_Attributes
0808ca5c t _ZL28CLR_MaxStreamSize_Attributes
08094a6c t _ZL28CLR_MaxStreamSize_Attributes
0808ea54 t _ZL28CLR_MaxStreamSize_Attributes
0808ac0c t _ZL28CLR_MaxStreamSize_Attributes
0808c82c t _ZL28CLR_MaxStreamSize_Attributes
08094d64 t _ZL28CLR_MaxStreamSize_Attributes
0808afac t _ZL28CLR_MaxStreamSize_Attributes
0808cbd4 t _ZL28CLR_MaxStreamSize_Attributes
0809496c t _ZL28CLR_MaxStreamSize_Attributes
0808b85c t _ZL28CLR_MaxStreamSize_Attributes
0808c534 t _ZL28CLR_MaxStreamSize_Attributes
0808c6cc t _ZL28CLR_MaxStreamSize_Attributes
0808d334 t _ZL28CLR_MaxStreamSize_Attributes
0808cfcc t _ZL28CLR_MaxStreamSize_Attributes
0808cbe8 t _ZL28CLR_MaxStreamSize_Signatures
08094980 t _ZL28CLR_MaxStreamSize_Signatures
0808ac20 t _ZL28CLR_MaxStreamSize_Signatures
0808d348 t _ZL28CLR_MaxStreamSize_Signatures
08095308 t _ZL28CLR_MaxStreamSize_Signatures
08093978 t _ZL28CLR_MaxStreamSize_Signatures
0808b870 t _ZL28CLR_MaxStreamSize_Signatures
0808afc0 t _ZL28CLR_MaxStreamSize_Signatures
0808d208 t _ZL28CLR_MaxStreamSize_Signatures
0808c6e0 t _ZL28CLR_MaxStreamSize_Signatures
0808cfe0 t _ZL28CLR_MaxStreamSize_Signatures
0808aa30 t _ZL28CLR_MaxStreamSize_Signatures
0808ea68 t _ZL28CLR_MaxStreamSize_Signatures
0808c840 t _ZL28CLR_MaxStreamSize_Signatures
08094a80 t _ZL28CLR_MaxStreamSize_Signatures
0808c548 t _ZL28CLR_MaxStreamSize_Signatures
0808ca70 t _ZL28CLR_MaxStreamSize_Signatures
0808aee0 t _ZL28CLR_MaxStreamSize_Signatures
08094d78 t _ZL28CLR_MaxStreamSize_Signatures
08096ca4 t _ZL28g_CLR_CSMA_MAC_DriverMethods
08096cb0 t _ZL28g_CLR_OMAC_MAC_DriverMethods
08075340 t _ZL28InitializeUsartDataEventSinkP38CLR_RT_HeapBlock_NativeEventDispatchery
080952d8 t _ZL29CLR_MaxStreamSize_AssemblyRef
08094d48 t _ZL29CLR_MaxStreamSize_AssemblyRef
0808c6b0 t _ZL29CLR_MaxStreamSize_AssemblyRef
0808af90 t _ZL29CLR_MaxStreamSize_AssemblyRef
0808c810 t _ZL29CLR_MaxStreamSize_AssemblyRef
0808aeb0 t _ZL29CLR_MaxStreamSize_AssemblyRef
0808b840 t _ZL29CLR_MaxStreamSize_AssemblyRef
0808d1d8 t _ZL29CLR_MaxStreamSize_AssemblyRef
0808c518 t _ZL29CLR_MaxStreamSize_AssemblyRef
0808aa00 t _ZL29CLR_MaxStreamSize_AssemblyRef
0808ea38 t _ZL29CLR_MaxStreamSize_AssemblyRef
0808cbb8 t _ZL29CLR_MaxStreamSize_AssemblyRef
08093948 t _ZL29CLR_MaxStreamSize_AssemblyRef
0808d318 t _ZL29CLR_MaxStreamSize_AssemblyRef
08094a50 t _ZL29CLR_MaxStreamSize_AssemblyRef
0808abf0 t _ZL29CLR_MaxStreamSize_AssemblyRef
0808ca40 t _ZL29CLR_MaxStreamSize_AssemblyRef
0808cfb0 t _ZL29CLR_MaxStreamSize_AssemblyRef
08094950 t _ZL29CLR_MaxStreamSize_AssemblyRef
08034db8 t _ZL29InitializeRealTimeTimerDriverP38CLR_RT_HeapBlock_NativeEventDispatchery
0802c2c4 t _ZL30DebuggerPort_SSL_GetDeviceCertPPhPj
0802c2a8 t _ZL30DebuggerPort_SSL_GetTargetHostPPKc
08023ab4 t _ZL30Debugging_Thread_Create_HelperR22CLR_RT_MethodDef_IndexRP13CLR_RT_Threadj
0808b812 t _ZL30g_VirtualTimerPerHardwareTimer
0808a646 t _ZL30g_VirtualTimerPerHardwareTimer
0809a81e t _ZL30g_VirtualTimerPerHardwareTimer
0808bd26 t _ZL30g_VirtualTimerPerHardwareTimer
0808a9d2 t _ZL30g_VirtualTimerPerHardwareTimer
0808ea06 t _ZL30g_VirtualTimerPerHardwareTimer
0808ae7e t _ZL30g_VirtualTimerPerHardwareTimer
080952aa t _ZL30g_VirtualTimerPerHardwareTimer
0808bd86 t _ZL30g_VirtualTimerPerHardwareTimer
08096ea6 t _ZL30g_VirtualTimerPerHardwareTimer
0808bdea t _ZL30g_VirtualTimerPerHardwareTimer
0808c212 t _ZL30g_VirtualTimerPerHardwareTimer
0808ce2e t _ZL30g_VirtualTimerPerHardwareTimer
0808d6be t _ZL30g_VirtualTimerPerHardwareTimer
0808cc4a t _ZL30g_VirtualTimerPerHardwareTimer
0808b8e6 t _ZL30g_VirtualTimerPerHardwareTimer
0808ceae t _ZL30g_VirtualTimerPerHardwareTimer
0808d64e t _ZL30g_VirtualTimerPerHardwareTimer
0808af5e t _ZL30g_VirtualTimerPerHardwareTimer
08096e4e t _ZL30g_VirtualTimerPerHardwareTimer
0808d772 t _ZL30g_VirtualTimerPerHardwareTimer
0809549a t _ZL30g_VirtualTimerPerHardwareTimer
0808d5d6 t _ZL30g_VirtualTimerPerHardwareTimer
08096cf2 t _ZL30g_VirtualTimerPerHardwareTimer
0808d49a t _ZL30g_VirtualTimerPerHardwareTimer
08096a6a t _ZL30g_VirtualTimerPerHardwareTimer
0808c8be t _ZL30g_VirtualTimerPerHardwareTimer
08094d1a t _ZL30g_VirtualTimerPerHardwareTimer
0808bf7a t _ZL30g_VirtualTimerPerHardwareTimer
08096f06 t _ZL30g_VirtualTimerPerHardwareTimer
0808d45a t _ZL30g_VirtualTimerPerHardwareTimer
08094a22 t _ZL30g_VirtualTimerPerHardwareTimer
0808c1da t _ZL30g_VirtualTimerPerHardwareTimer
0808d3be t _ZL30g_VirtualTimerPerHardwareTimer
08093916 t _ZL30g_VirtualTimerPerHardwareTimer
080969aa t _ZL30g_VirtualTimerPerHardwareTimer
0808abbe t _ZL30g_VirtualTimerPerHardwareTimer
080954fe t _ZL30g_VirtualTimerPerHardwareTimer
08094922 t _ZL30g_VirtualTimerPerHardwareTimer
08054e68 t _ZL30LookUpAssemblyNativeDataByNamePPK25CLR_RT_NativeAssemblyDataPKc
0808cbe0 t _ZL31CLR_MaxStreamSize_ResourcesData
0808afb8 t _ZL31CLR_MaxStreamSize_ResourcesData
08094978 t _ZL31CLR_MaxStreamSize_ResourcesData
08094d70 t _ZL31CLR_MaxStreamSize_ResourcesData
08094a78 t _ZL31CLR_MaxStreamSize_ResourcesData
0808d200 t _ZL31CLR_MaxStreamSize_ResourcesData
0808c6d8 t _ZL31CLR_MaxStreamSize_ResourcesData
0808cfd8 t _ZL31CLR_MaxStreamSize_ResourcesData
0808ea60 t _ZL31CLR_MaxStreamSize_ResourcesData
0808aa28 t _ZL31CLR_MaxStreamSize_ResourcesData
08093970 t _ZL31CLR_MaxStreamSize_ResourcesData
0808c838 t _ZL31CLR_MaxStreamSize_ResourcesData
0808c540 t _ZL31CLR_MaxStreamSize_ResourcesData
0808ac18 t _ZL31CLR_MaxStreamSize_ResourcesData
0808ca68 t _ZL31CLR_MaxStreamSize_ResourcesData
0808aed8 t _ZL31CLR_MaxStreamSize_ResourcesData
08095300 t _ZL31CLR_MaxStreamSize_ResourcesData
0808d340 t _ZL31CLR_MaxStreamSize_ResourcesData
0808b868 t _ZL31CLR_MaxStreamSize_ResourcesData
0807539c t _ZL31EnableDisableUsartDataEventSinkP38CLR_RT_HeapBlock_NativeEventDispatcherb
0808cbf0 t _ZL32CLR_MaxStreamSize_ResourcesFiles
08094988 t _ZL32CLR_MaxStreamSize_ResourcesFiles
0808d350 t _ZL32CLR_MaxStreamSize_ResourcesFiles
0808aa38 t _ZL32CLR_MaxStreamSize_ResourcesFiles
08094d80 t _ZL32CLR_MaxStreamSize_ResourcesFiles
0808b878 t _ZL32CLR_MaxStreamSize_ResourcesFiles
0808cfe8 t _ZL32CLR_MaxStreamSize_ResourcesFiles
0808d210 t _ZL32CLR_MaxStreamSize_ResourcesFiles
0808ca78 t _ZL32CLR_MaxStreamSize_ResourcesFiles
0808afc8 t _ZL32CLR_MaxStreamSize_ResourcesFiles
08095310 t _ZL32CLR_MaxStreamSize_ResourcesFiles
0808ea70 t _ZL32CLR_MaxStreamSize_ResourcesFiles
0808c6e8 t _ZL32CLR_MaxStreamSize_ResourcesFiles
08093980 t _ZL32CLR_MaxStreamSize_ResourcesFiles
0808c550 t _ZL32CLR_MaxStreamSize_ResourcesFiles
08094a88 t _ZL32CLR_MaxStreamSize_ResourcesFiles
0808aee8 t _ZL32CLR_MaxStreamSize_ResourcesFiles
0808c848 t _ZL32CLR_MaxStreamSize_ResourcesFiles
0808ac28 t _ZL32CLR_MaxStreamSize_ResourcesFiles
08035074 t _ZL32EnableDisableRealTimeTimerDriverP38CLR_RT_HeapBlock_NativeEventDispatcherb
08096c98 t _ZL34g_CLR_Radio_802_15_4_DriverMethods
0802c67c t _ZL34local_Events_SetBoolTimer_CallbackPv
0808ce58 t _ZL34STM32F10x_BlockRange_InternalFlash
0808cadc t _ZL35g_InteropRealTimeTimerDriverMethods
080732bc t _ZL38Microsoft_SPOT_Hardware_Port_ConstructP16CLR_RT_HeapBlockjb13GPIO_RESISTOR13GPIO_INT_EDGEbb
0808ced8 t _ZL38STM32F10x_BlockRange_ExternalFlash_NOR
0808ce94 t _ZL39STM32F10x_BlockRegionInfo_InternalFlash
0808cee4 t _ZL43STM32F10x_BlockRegionInfo_ExternalFlash_NOR
08095224 t _ZL45g_CLR_AssemblyNative_Microsoft_SPOT_EventSink
08072abc t _ZL53Microsoft_SPOT_Hardware_InterruptPort_EnableInterruptP16CLR_RT_HeapBlockP38CLR_RT_HeapBlock_NativeEventDispatcher
08072b84 t _ZL54Microsoft_SPOT_Hardware_InterruptPort_DisableInterruptP16CLR_RT_HeapBlockP38CLR_RT_HeapBlock_NativeEventDispatcher
08095458 t _ZL59g_CLR_AssemblyNative_Microsoft_SPOT_Hardware_UsartErrorSink
0809544c t _ZL59g_CLR_AssemblyNative_Microsoft_SPOT_Hardware_UsartEventSink
0808d604 t _ZL6c_Busy
0808d600 t _ZL6c_Free
2000c97c b _ZL6ULevel
2000c978 b _ZL6USpeed
0808d608 t _ZL7c_Guard
0809a848 t _ZL7LCD_NUM
080324f8 t _ZL8add_sizem
0808d308 t _ZL8crc_size
0808d1c8 t _ZL8crc_size
0808bf38 t _ZL8crc_size
0808cdf0 t _ZL8crc_size
0808c508 t _ZL8crc_size
0808cba8 t _ZL8crc_size
0808c6a0 t _ZL8crc_size
0808c800 t _ZL8crc_size
0808cfa0 t _ZL8crc_size
0808bfa0 t _ZL8crc_size
0808c8e8 t _ZL8crc_size
20007c40 b _ZL8gpio_isr
0808d484 t _ZL8GPIO_PPP
20006acc b _ZL9g_Context
2000c964 b _ZL9g_Context
20007e00 b _ZL9gpio_parm
0808d488 t _ZL9GPIO_PINS
0802fa00 t _ZL9init_com0v
0802fb5c t _ZL9init_com1iiiii
20002570 d _ZL9oddparity
0808d743 t _ZL9RTC_32BIT
0808bda3 t _ZL9RTC_32BIT
0808d5f3 t _ZL9RTC_32BIT
0808a9ef t _ZL9RTC_32BIT
0808c693 t _ZL9RTC_32BIT
0808ce1b t _ZL9RTC_32BIT
080954b7 t _ZL9RTC_32BIT
0808d4b7 t _ZL9RTC_32BIT
0808c22f t _ZL9RTC_32BIT
08094d37 t _ZL9RTC_32BIT
0808bf2b t _ZL9RTC_32BIT
08096d0f t _ZL9RTC_32BIT
0808cb9b t _ZL9RTC_32BIT
0808d78f t _ZL9RTC_32BIT
0808bd43 t _ZL9RTC_32BIT
0808bf97 t _ZL9RTC_32BIT
0808ae9b t _ZL9RTC_32BIT
0808d6db t _ZL9RTC_32BIT
0808be07 t _ZL9RTC_32BIT
08096f23 t _ZL9RTC_32BIT
0808af7b t _ZL9RTC_32BIT
0808a663 t _ZL9RTC_32BIT
0808cecb t _ZL9RTC_32BIT
0808cf93 t _ZL9RTC_32BIT
0808c1f7 t _ZL9RTC_32BIT
0809a83b t _ZL9RTC_32BIT
080952c7 t _ZL9RTC_32BIT
0808b903 t _ZL9RTC_32BIT
0808d3db t _ZL9RTC_32BIT
08094a3f t _ZL9RTC_32BIT
0808c7f7 t _ZL9RTC_32BIT
0808cde3 t _ZL9RTC_32BIT
08096ec3 t _ZL9RTC_32BIT
08096e6b t _ZL9RTC_32BIT
0808b82f t _ZL9RTC_32BIT
0808ca2b t _ZL9RTC_32BIT
0808ce4b t _ZL9RTC_32BIT
0808cc67 t _ZL9RTC_32BIT
0808d1bb t _ZL9RTC_32BIT
0808d66b t _ZL9RTC_32BIT
08096a87 t _ZL9RTC_32BIT
0808c8db t _ZL9RTC_32BIT
080969c7 t _ZL9RTC_32BIT
0808ea23 t _ZL9RTC_32BIT
0809493f t _ZL9RTC_32BIT
0808d2ff t _ZL9RTC_32BIT
0808c4ff t _ZL9RTC_32BIT
0808abdb t _ZL9RTC_32BIT
0809551b t _ZL9RTC_32BIT
08093933 t _ZL9RTC_32BIT
0808d477 t _ZL9RTC_32BIT
080484ec W _ZN10CLR_Checks13VerifyStackOKER17CLR_RT_StackFrameP16CLR_RT_HeapBlocki
08048d14 T _ZN10CLR_Checks20VerifyArrayReferenceER16CLR_RT_HeapBlock
08048d80 T _ZN10CLR_Checks24VerifyUnknownInstructionE10CLR_OPCODE
08048da0 T _ZN10CLR_Checks28VerifyUnsupportedInstructionE10CLR_OPCODE
0802caf0 T _ZN10GlobalTime18Local2NeighborTimeEty
0802ca48 T _ZN10GlobalTime18Neighbor2LocalTimeEty
0802ca10 T _ZN10GlobalTime4InitEv
20006750 B _ZN10GlobalTime4skewE
20002376 D _ZN10GlobalTime6leaderE
20006748 B _ZN10GlobalTime6offsetE
20006754 B _ZN10GlobalTime6syncedE
0803f434 T _ZN10I2C_Driver10InitializeEv
0803f498 T _ZN10I2C_Driver12UninitializeEv
0803f60c T _ZN10I2C_Driver17CompletedCallbackEPv
0803f564 T _ZN10I2C_Driver6CancelEP15I2C_HAL_XACTIONb
0803f4fc T _ZN10I2C_Driver7EnqueueEP15I2C_HAL_XACTION
0803f650 T _ZN10I2C_Driver9StartNextEv
0802c894 W _ZN10Regression12FindNeighborEt
080318cc W _ZN10Regression16LastRecordedTimeEt
0802c8dc W _ZN10Regression24NumberOfRecordedElementsEt
0802c918 W _ZN10Regression4InitEv
080316d4 W _ZN10Regression6InsertEtyx
080312c0 W _ZN10Regression7ComputeEt
08033848 T _ZN10RF231Radio10InitializeEP17RadioEventHandlerhh
08032b48 T _ZN10RF231Radio10SendStrobeEt
080323d8 W _ZN10RF231Radio10SlptrClearEv
08033518 T _ZN10RF231Radio12AntDiversityEj
080343e4 T _ZN10RF231Radio12CheckForRSSIEv
0802e4d0 W _ZN10RF231Radio12GetRadioTypeEv
08034254 T _ZN10RF231Radio12ReadRegisterEh
0802e4b4 W _ZN10RF231Radio12SetRadioTypeEi
08033d64 T _ZN10RF231Radio12UnInitializeEv
080330c0 T _ZN10RF231Radio13ChangeChannelEi
08033014 T _ZN10RF231Radio13ChangeTxPowerEi
08034014 T _ZN10RF231Radio13SpiInitializeEv
08033e04 T _ZN10RF231Radio13WriteRegisterEhh
08034a18 T _ZN10RF231Radio15DownloadMessageEv
08034508 T _ZN10RF231Radio15HandleInterruptEv
080340b0 T _ZN10RF231Radio15SpiUnInitializeEv
08032d68 T _ZN10RF231Radio16Send_TimeStampedEPvtj
08033e80 T _ZN10RF231Radio17GpioPinInitializeEv
0803273c T _ZN10RF231Radio17Interrupt_PendingEv
08033f70 T _ZN10RF231Radio19GpioPinUnInitializeEv
0803278c T _ZN10RF231Radio20Careful_State_ChangeE20radio_hal_trx_status
0803276c T _ZN10RF231Radio20Careful_State_ChangeEm
080342c0 T _ZN10RF231Radio21ClearChannelAssesmentEj
0803447c T _ZN10RF231Radio21ClearChannelAssesmentEv
08032908 T _ZN10RF231Radio29Careful_State_Change_ExtendedE20radio_hal_trx_status
080328e8 T _ZN10RF231Radio29Careful_State_Change_ExtendedEm
080335d8 T _ZN10RF231Radio3AmpEj
080332e0 T _ZN10RF231Radio4SendEPvt
08033168 T _ZN10RF231Radio5SleepEi
08033578 T _ZN10RF231Radio6PARXTXEj
08032608 T _ZN10RF231Radio6WakeupEv
08032ae4 T _ZN10RF231Radio7PreloadEP7MessageI19IEEE802_15_4_HeaderLt95E19IEEE802_15_4_Footer21IEEE802_15_4_MetadataEt
080323bc W _ZN10RF231Radio7RstnSetEv
08032384 W _ZN10RF231Radio7SelnSetEv
080325c4 T _ZN10RF231Radio8Send_AckEPvt11NetOpStatush
080323f4 W _ZN10RF231Radio8SlptrSetEv
08034100 T _ZN10RF231Radio8TurnOnRxEv
080323a0 W _ZN10RF231Radio9RstnClearEv
08032368 W _ZN10RF231Radio9SelnClearEv
080341b4 T _ZN10RF231Radio9TurnOffRxEv
08042994 W _ZN10STM32_AITC11SetPriorityEjj
08042934 W _ZN10STM32_AITC15EnableInterruptEj
08042900 W _ZN10STM32_AITC16DisableInterruptEj
08042964 W _ZN10STM32_AITC18IsInterruptEnabledEj
08042a0c W _ZN10STM32_AITC21RemoveForcedInterruptEj
08044ff8 T _ZN10TimeDriver10GetUtcTimeEv
08044ee8 T _ZN10TimeDriver10InitializeEv
0804501c T _ZN10TimeDriver10SetUtcTimeExb
08045748 T _ZN10TimeDriver11DaysInMonthEiiPi
08045a74 T _ZN10TimeDriver11SafeSprintfERPcRjPKcz
08045054 T _ZN10TimeDriver12GetLocalTimeEv
08045a10 T _ZN10TimeDriver12SafeSprintfVERPcRjPKcSt9__va_list
080450c8 T _ZN10TimeDriver12ToSystemTimeExP10SYSTEMTIME
08044fc8 T _ZN10TimeDriver12UninitializeEv
20008038 B _ZN10TimeDriver13m_initializedE
080456bc T _ZN10TimeDriver14AccDaysInMonthEiiPi
08045448 T _ZN10TimeDriver14FromSystemTimeEPK10SYSTEMTIME
080450a8 T _ZN10TimeDriver14GetMachineTimeEv
0804583c T _ZN10TimeDriver16TimeSpanToStringERKxRPcRj
08045078 T _ZN10TimeDriver17GetTimeZoneOffsetEv
08027b50 T _ZN10WP_Message10InitializeEP13WP_Controller
08027c50 T _ZN10WP_Message12PrepareReplyERK9WP_PacketjjPh
08027d24 T _ZN10WP_Message12VerifyHeaderEv
08027d68 T _ZN10WP_Message13VerifyPayloadEv
08027bb4 T _ZN10WP_Message14PrepareRequestEjjjPh
08027db0 T _ZN10WP_Message14ReplyBadPacketEj
08027b9c T _ZN10WP_Message16PrepareReceptionEv
08027e00 T _ZN10WP_Message7ProcessEv
08027cf4 T _ZN10WP_Message7ReleaseEv
08031114 W _ZN11Buffer_15_4ILh1EE10DropOldestEh
0802bd24 W _ZN11Buffer_15_4ILh1EE10InitializeEv
080311b0 W _ZN11Buffer_15_4ILh1EE12IsBufferFullEv
080310f8 W _ZN11Buffer_15_4ILh1EE13IsBufferEmptyEv
0803d174 W _ZN11Buffer_15_4ILh1EE23GetOldestwithoutRemovalEv
0803120c W _ZN11Buffer_15_4ILh1EE9GetOldestEv
0802c000 W _ZN11Buffer_15_4ILh8EE10DropOldestEh
0802bdd4 W _ZN11Buffer_15_4ILh8EE10InitializeEv
0802bf34 W _ZN11Buffer_15_4ILh8EE12GetOldestPtrEv
0802c02c W _ZN11Buffer_15_4ILh8EE13IsBufferEmptyEv
0802be70 W _ZN11Buffer_15_4ILh8EE5StoreEPvh
0802c1f4 W _ZN11Buffer_15_4ILh8EE9GetOldestEv
080270a8 T _ZN11CLR_RT_DUMP15GETERRORMESSAGEEi
08027018 T _ZN11CLR_RT_DUMP22POST_PROCESS_EXCEPTIONER16CLR_RT_HeapBlock
08026e84 T _ZN11CLR_RT_DUMP4TYPEERK20CLR_RT_TypeDef_Index
08026ee4 T _ZN11CLR_RT_DUMP6METHODERK22CLR_RT_MethodDef_Index
08026f38 T _ZN11CLR_RT_DUMP9EXCEPTIONER17CLR_RT_StackFrameR16CLR_RT_HeapBlock
08079f28 T _ZN11SDIO_Driver10EraseBlockEjj
08079e88 T _ZN11SDIO_Driver10InitializeEPFv12DeviceStatusE
08079f5c T _ZN11SDIO_Driver10WriteBlockEPhjt
08079fcc T _ZN11SDIO_Driver12SDIO_HANDLEREPv
08079e70 T _ZN11SDIO_Driver14DMAClockEnableEv
08079dc4 T _ZN11SDIO_Driver15GPIOClockEnableEv
08079e58 T _ZN11SDIO_Driver15SDIOClockEnableEv
08079ddc T _ZN11SDIO_Driver8GPIOInitEv
08079f94 T _ZN11SDIO_Driver9ReadBlockEPhjt
0803dacc T _ZN11Time_Driver10InitializeEv
0803ddfc T _ZN11Time_Driver10Sleep_uSecEj
0803dc9c T _ZN11Time_Driver11CurrentTimeEv
0803dc78 T _ZN11Time_Driver11TicksToTimeEy
0803db84 T _ZN11Time_Driver12CurrentTicksEv
0803dbe4 T _ZN11Time_Driver15SetCompareValueEy
20007bf0 B _ZN11Time_Driver8maxTicksE
20007bf4 B _ZN11Time_Driver9prevTicksE
0803dbb8 T _ZN11Time_Driver9StopTimerEv
0806d804 T _ZN12CLR_GFX_Font14CreateInstanceER16CLR_RT_HeapBlockPKhP15CLR_RT_Assembly
0803af50 W _ZN12HAL_CALLBACK10InitializeEPFvPvES0_
08031954 T _ZN12OMACTimeSync10InitializeEhh
08031b6c T _ZN12OMACTimeSync12ExecuteEventEv
08031bb0 T _ZN12OMACTimeSync12FailsafeStopEv
08031ccc T _ZN12OMACTimeSync12ReceiveTSReqEtP18TimeSyncRequestMsg
08031d08 T _ZN12OMACTimeSync13CreateMessageEP11TimeSyncMsgyb
08031aa8 T _ZN12OMACTimeSync16NextEventinSlotsEv
08031b94 T _ZN12OMACTimeSync16PostExecuteEventEv
08031e6c T _ZN12OMACTimeSync21GetCurrentTimeinTicksEv
08031e88 T _ZN12OMACTimeSync23ConvertTickstoMicroSecsERKy
08031bc4 T _ZN12OMACTimeSync4SendEt
08031d70 T _ZN12OMACTimeSync7ReceiveEtP11TimeSyncMsgyy
080319d8 T _ZN12OMACTimeSync9NextEventEv
08035bac T _ZN12SmartPtr_IRQ12ForceEnabledEPv
08035b94 T _ZN12SmartPtr_IRQ13ForceDisabledEPv
08035b3c T _ZN12SmartPtr_IRQ5ProbeEv
08035aec T _ZN12SmartPtr_IRQ7AcquireEv
08035bc4 T _ZN12SmartPtr_IRQ7DisableEv
08035b10 T _ZN12SmartPtr_IRQ7ReleaseEv
08035be0 T _ZN12SmartPtr_IRQ7RestoreEv
08035b70 T _ZN12SmartPtr_IRQ8GetStateEPv
08035ab4 T _ZN12SmartPtr_IRQC1EPv
08035ab4 T _ZN12SmartPtr_IRQC2EPv
08035ad4 T _ZN12SmartPtr_IRQD1Ev
08035ad4 T _ZN12SmartPtr_IRQD2Ev
08039798 T _ZN12USART_Driver10InitializeEiiiiii
08039cf8 T _ZN12USART_Driver11ManagedReadEiPcj
08039900 T _ZN12USART_Driver12UninitializeEi
08039f0c T _ZN12USART_Driver13AddToRxBufferEiPcj
0803a354 T _ZN12USART_Driver13CloseAllPortsEv
0803a3f8 T _ZN12USART_Driver13DiscardBufferEij
0803a4fc T _ZN12USART_Driver16ConnectEventSinkEiiPvPFvS0_jEPS0_
0803a0ac T _ZN12USART_Driver17AddCharToRxBufferEic
0803a3a0 T _ZN12USART_Driver20BytesInManagedBufferEij
0803a1f4 T _ZN12USART_Driver22RemoveCharFromTxBufferEiRc
08039b6c T _ZN12USART_Driver4ReadEiPcj
08039e1c T _ZN12USART_Driver5FlushEi
08039988 T _ZN12USART_Driver5WriteEiPKcj
0803a2c0 T _ZN12USART_Driver7SendXONEij
0803a588 T _ZN12USART_Driver8SetEventEij
0802637c T _ZN13CLR_Messaging10InitializeEiPK34CLR_Messaging_CommandHandlerLookupjS2_jPv
0802676c T _ZN13CLR_Messaging10PurgeCacheER20CLR_RT_DblLinkedListx
08026724 T _ZN13CLR_Messaging10PurgeCacheEv
080262c0 T _ZN13CLR_Messaging11App_ReleaseEPvP10WP_Message
0802653c T _ZN13CLR_Messaging13ProcessHeaderEP10WP_Message
080262ec T _ZN13CLR_Messaging14CreateInstanceEv
08026484 T _ZN13CLR_Messaging14DeleteInstanceEv
0802608c T _ZN13CLR_Messaging14Messaging_SendEP10WP_MessagePv
08026554 T _ZN13CLR_Messaging14ProcessPayloadEP10WP_Message
08026a78 T _ZN13CLR_Messaging14ReplyToCommandEP10WP_Messagebb
080269a0 T _ZN13CLR_Messaging14ReplyToCommandEP10WP_MessagebbPvi
0802602c T _ZN13CLR_Messaging15Messaging_QueryEP10WP_MessagePv
0802611c T _ZN13CLR_Messaging15Messaging_ReplyEP10WP_MessagePv
08026518 T _ZN13CLR_Messaging15ProcessCommandsEv
080267e8 T _ZN13CLR_Messaging15TransmitMessageEPK10WP_Messageb
080261ac T _ZN13CLR_Messaging16Phy_ReceiveBytesEPvRPhRj
08026230 T _ZN13CLR_Messaging17App_ProcessHeaderEPvP10WP_Message
0802628c T _ZN13CLR_Messaging18App_ProcessPayloadEPvP10WP_Message
0806d83c W _ZN13CLR_Messaging18InitializeDebuggerEv
0802620c T _ZN13CLR_Messaging19Phy_TransmitMessageEPvPK10WP_Message
0806d820 W _ZN13CLR_Messaging21IsDebuggerInitializedEv
08025f50 T _ZN13CLR_Messaging23AllocateAndQueueMessageEjjPhN25CLR_RT_HeapBlock_EndPoint4PortENS1_7AddressEj
080264ac T _ZN13CLR_Messaging7CleanupEv
08026970 T _ZN13CLR_Messaging9SendEventEjjPhj
0805ef98 T _ZN13CLR_RECORD_EH21ExtractEhFromByteCodeEPKhRPKS_Rj
08054e3c T _ZN13CLR_RT_Memory18Allocate_And_EraseEjj
08054d30 T _ZN13CLR_RT_Memory5ResetEv
08054d4c T _ZN13CLR_RT_Memory7ReleaseEPv
08054d9c T _ZN13CLR_RT_Memory8AllocateEjj
0802049c W _ZN13CLR_RT_Memory8ZeroFillEPvj
0805bfd8 T _ZN13CLR_RT_Random10InitializeEi
0805bfa8 T _ZN13CLR_RT_Random10InitializeEv
0805c088 T _ZN13CLR_RT_Random10NextDoubleEv
0805bff4 T _ZN13CLR_RT_Random4NextEv
0805c0c8 T _ZN13CLR_RT_Random9NextBytesEPhj
08057f60 T _ZN13CLR_RT_Thread10Execute_ILEP17CLR_RT_StackFrame
08057530 T _ZN13CLR_RT_Thread11FindEhBlockEP17CLR_RT_StackFramePKhS3_R23CLR_RT_ExceptionHandlerb
08057498 T _ZN13CLR_RT_Thread11PopEH_InnerEP17CLR_RT_StackFramePKh
08048330 W _ZN13CLR_RT_Thread11UnwindStack8GetPhaseEv
080215f8 W _ZN13CLR_RT_Thread11UnwindStack8SetPhaseEh
08057b94 T _ZN13CLR_RT_Thread13Execute_InnerEv
0805cb10 T _ZN13CLR_RT_Thread13RecoverFromGCEv
0805c558 T _ZN13CLR_RT_Thread14CreateInstanceEiiRPS_j
0805c718 T _ZN13CLR_RT_Thread14CreateInstanceEiP25CLR_RT_HeapBlock_DelegateiRPS_j
0805c770 T _ZN13CLR_RT_Thread15DestroyInstanceEv
0805d6e4 T _ZN13CLR_RT_Thread16ProcessExceptionEv
0805c404 T _ZN13CLR_RT_Thread17CanThreadBeReusedEv
0805c3d8 T _ZN13CLR_RT_Thread17IsFinalizerThreadEv
0805c7b0 T _ZN13CLR_RT_Thread17ReleaseWhenDeadExEv
08063754 W _ZN13CLR_RT_Thread17SetThreadPriorityEi
0805c9fc T _ZN13CLR_RT_Thread18OnThreadTerminatedEv
08057a20 T _ZN13CLR_RT_Thread19RTOS_Thread_ExecuteEv
0805c874 T _ZN13CLR_RT_Thread21ProtectFromGCCallbackEPv
0805c3ac T _ZN13CLR_RT_Thread22BringExecCounterToDateEii
08057de8 T _ZN13CLR_RT_Thread22Execute_DelegateInvokeEP17CLR_RT_StackFrame
0805c43c T _ZN13CLR_RT_Thread22PushThreadProcDelegateEP25CLR_RT_HeapBlock_Delegate
0805ce8c T _ZN13CLR_RT_Thread23ProcessException_Phase1Ev
0805d2dc T _ZN13CLR_RT_Thread23ProcessException_Phase2Ev
0805cc24 T _ZN13CLR_RT_Thread26ProcessException_EndFilterEv
0805cd78 T _ZN13CLR_RT_Thread27ProcessException_EndFinallyEv
0805cbc4 T _ZN13CLR_RT_Thread42ProcessException_FilterPseudoFrameCopyVarsEP17CLR_RT_StackFrameS1_
0805c964 T _ZN13CLR_RT_Thread5AbortEv
080483e4 W _ZN13CLR_RT_Thread5PopEHEP17CLR_RT_StackFramePKh
08057404 T _ZN13CLR_RT_Thread6PushEHEv
0805c8d8 T _ZN13CLR_RT_Thread6ResumeEv
08057878 T _ZN13CLR_RT_Thread7ExecuteEv
0805c9b4 T _ZN13CLR_RT_Thread7RestartEb
0805c894 T _ZN13CLR_RT_Thread7SuspendEv
0805cb28 T _ZN13CLR_RT_Thread8RelocateEv
0805ca38 T _ZN13CLR_RT_Thread9PassivateEv
0805c91c T _ZN13CLR_RT_Thread9TerminateEv
08022c20 T _ZN13MfReleaseInfo4InitERS_ttttPKcj
08029c48 T _ZN13NeighborTable10ClearTableEv
08029c7c T _ZN13NeighborTable10GetFreeIdxEPh
08029cc8 T _ZN13NeighborTable14GetNeighborPtrEt
08029d2c T _ZN13NeighborTable14InsertNeighborEt14NeighborStatusyttjjPh
08029e74 T _ZN13NeighborTable14UpdateNeighborEt14NeighborStatusyff
08029da0 T _ZN13NeighborTable14UpdateNeighborEt14NeighborStatusyttjjPh
0802992c T _ZN13NeighborTable16BringOutYourDeadEj
08029d14 T _ZN13NeighborTable17NumberOfNeighborsEv
0802a118 T _ZN13NeighborTable18RecordTimeSyncRecvEty
0802a0b4 T _ZN13NeighborTable18RecordTimeSyncSentEty
08029a48 T _ZN13NeighborTable19ClearNeighborwIndexEh
0802a17c T _ZN13NeighborTable19GetLastTimeSyncRecvEt
08029844 T _ZN13NeighborTable19RecordLastHeardTimeEty
080298a8 T _ZN13NeighborTable19UpdateNeighborTableEj
0802a050 T _ZN13NeighborTable25RecordTimeSyncRequestSentEty
0802a1dc T _ZN13NeighborTable35GetCritalSyncNeighborWOldestSyncPtrERKyS1_S1_
080298c4 T _ZN13NeighborTable9FindIndexEtPh
08035318 T _ZN13OMACScheduler10InitializeEhh
08035920 T _ZN13OMACScheduler12FailsafeStopEv
0803583c T _ZN13OMACScheduler12RunEventTaskEv
08035444 T _ZN13OMACScheduler13GetSlotNumberEv
0803590c T _ZN13OMACScheduler13PostExecutionEv
08035a24 T _ZN13OMACScheduler15EnsureStopRadioEv
080359a8 T _ZN13OMACScheduler17PostPostExecutionEv
08035514 T _ZN13OMACScheduler17ScheduleNextEventEv
08035488 T _ZN13OMACScheduler22GetSlotNumberfromTicksERKy
080354b8 T _ZN13OMACScheduler23GetTimeTillTheEndofSlotEv
0803b82c W _ZN13SeedGenerator12RandWithMaskEPtt
         U _ZN13STM32F10x_RTC10GetCounterEv
0802ecd4 T _ZN13STM32F10x_RTC10InitializeEjPFvPvEj
0802edd8 T _ZN13STM32F10x_RTC10SetCompareEy
0802ee50 T _ZN13STM32F10x_RTC11GetMaxTicksEv
200033a4 B _ZN13STM32F10x_RTC11initializedE
0802ec44 T _ZN13STM32F10x_RTC12Get64CounterEv
080280fc T _ZN13WP_Controller10InitializeEPKcPK16WP_PhysicalLayerPK19WP_ApplicationLayerPv
08028154 T _ZN13WP_Controller12AdvanceStateEv
08028194 T _ZN13WP_Controller19SendProtocolMessageEjjjPh
08028170 T _ZN13WP_Controller19SendProtocolMessageERK10WP_Message
0802c048 W _ZN14CircularBufferI7MessageI19IEEE802_15_4_HeaderLt95E19IEEE802_15_4_Footer21IEEE802_15_4_MetadataELh1EE10InitializeEv
08031140 W _ZN14CircularBufferI7MessageI19IEEE802_15_4_HeaderLt95E19IEEE802_15_4_Footer21IEEE802_15_4_MetadataELh1EE17GetNextFreeBufferEv
08031268 W _ZN14CircularBufferI7MessageI19IEEE802_15_4_HeaderLt95E19IEEE802_15_4_Footer21IEEE802_15_4_MetadataELh1EE18GetFirstFullBufferEv
0803d1ac W _ZN14CircularBufferI7MessageI19IEEE802_15_4_HeaderLt95E19IEEE802_15_4_Footer21IEEE802_15_4_MetadataELh1EE19PeekFirstFullBufferEv
080311cc W _ZN14CircularBufferI7MessageI19IEEE802_15_4_HeaderLt95E19IEEE802_15_4_Footer21IEEE802_15_4_MetadataELh1EE25GetNumberMessagesInBufferEv
08031244 W _ZN14CircularBufferI7MessageI19IEEE802_15_4_HeaderLt95E19IEEE802_15_4_Footer21IEEE802_15_4_MetadataELh1EE6IsFullEv
080311e8 W _ZN14CircularBufferI7MessageI19IEEE802_15_4_HeaderLt95E19IEEE802_15_4_Footer21IEEE802_15_4_MetadataELh1EE7IsEmptyEv
0802c0b8 W _ZN14CircularBufferI7MessageI19IEEE802_15_4_HeaderLt95E19IEEE802_15_4_Footer21IEEE802_15_4_MetadataELh8EE10InitializeEv
0802c12c W _ZN14CircularBufferI7MessageI19IEEE802_15_4_HeaderLt95E19IEEE802_15_4_Footer21IEEE802_15_4_MetadataELh8EE17GetNextFreeBufferEv
0802c22c W _ZN14CircularBufferI7MessageI19IEEE802_15_4_HeaderLt95E19IEEE802_15_4_Footer21IEEE802_15_4_MetadataELh8EE18GetFirstFullBufferEv
0802bf94 W _ZN14CircularBufferI7MessageI19IEEE802_15_4_HeaderLt95E19IEEE802_15_4_Footer21IEEE802_15_4_MetadataELh8EE20GetNextFreeBufferPtrEv
0802c19c W _ZN14CircularBufferI7MessageI19IEEE802_15_4_HeaderLt95E19IEEE802_15_4_Footer21IEEE802_15_4_MetadataELh8EE21GetFirstFullBufferPtrEv
0802bd40 W _ZN14CircularBufferI7MessageI19IEEE802_15_4_HeaderLt95E19IEEE802_15_4_Footer21IEEE802_15_4_MetadataELh8EE25GetNumberMessagesInBufferEv
0802c108 W _ZN14CircularBufferI7MessageI19IEEE802_15_4_HeaderLt95E19IEEE802_15_4_Footer21IEEE802_15_4_MetadataELh8EE6IsFullEv
0802bf10 W _ZN14CircularBufferI7MessageI19IEEE802_15_4_HeaderLt95E19IEEE802_15_4_Footer21IEEE802_15_4_MetadataELh8EE7IsEmptyEv
0806d7e4 T _ZN14CLR_GFX_Bitmap14CreateInstanceER16CLR_RT_HeapBlockPKhjP15CLR_RT_Assembly
0803b218 T _ZN14HAL_COMPLETION12EnqueueDeltaEj
0803b114 T _ZN14HAL_COMPLETION12EnqueueTicksEy
0803b3a4 T _ZN14HAL_COMPLETION12UninitializeEv
0803b050 T _ZN14HAL_COMPLETION14DequeueAndExecEv
0803b1dc T _ZN14HAL_COMPLETION14EnqueueDelta64Ey
0803b03c T _ZN14HAL_COMPLETION14InitializeListEv
0802c430 W _ZN14HAL_COMPLETION16InitializeForISREPFvPvES0_
0803b2c8 T _ZN14HAL_COMPLETION17WaitForInterruptsEyjy
0803b238 T _ZN14HAL_COMPLETION5AbortEv
0803afe8 T _ZN14HAL_COMPLETION7ExecuteEv
080469a8 T _ZN14PalEventDriver10InitializeEv
080469d8 T _ZN14PalEventDriver12UninitializeEv
20008190 B _ZN14PalEventDriver13s_initializedE
08031ed8 T _ZN14RadioControl_t10InitializeEv
0803205c T _ZN14RadioControl_t17PiggybackMessagesEP7MessageI19IEEE802_15_4_HeaderLt95E19IEEE802_15_4_Footer21IEEE802_15_4_MetadataERt
080320c4 T _ZN14RadioControl_t24PiggybackTimeSyncMessageEP7MessageI19IEEE802_15_4_HeaderLt95E19IEEE802_15_4_Footer21IEEE802_15_4_MetadataERt
08031f24 T _ZN14RadioControl_t4SendEtP7MessageI19IEEE802_15_4_HeaderLt95E19IEEE802_15_4_Footer21IEEE802_15_4_MetadataEt
08032270 T _ZN14RadioControl_t4StopEv
080322b4 T _ZN14RadioControl_t7StartRxEv
0806dad0 T _ZN15CLR_HW_Hardware12PrepareForGCEv
0806d868 T _ZN15CLR_HW_Hardware14CreateInstanceEv
0806da8c T _ZN15CLR_HW_Hardware14DeleteInstanceEv
0806dae4 T _ZN15CLR_HW_Hardware15ProcessActivityEv
0806eb34 T _ZN15CLR_HW_Hardware15SpawnDispatcherEv
0806daac T _ZN15CLR_HW_Hardware16Hardware_CleanupEv
0806ed1c T _ZN15CLR_HW_Hardware17ProcessInterruptsEv
0806dd04 W _ZN15CLR_HW_Hardware18HalInterruptRecord10AssignFromERKS0_
0806d898 T _ZN15CLR_HW_Hardware19Hardware_InitializeEv
0806eabc T _ZN15CLR_HW_Hardware19SpawnRTOSDispatcherEP27CLR_RT_ApplicationInterrupt
0806ec08 T _ZN15CLR_HW_Hardware39TransferAllInterruptsToApplicationQueueEv
08047fa4 W _ZN15CLR_RT_Assembly10DumpOpcodeEP17CLR_RT_StackFramePKh
08047e1c W _ZN15CLR_RT_Assembly10GetTypeDefEt
0805c18c T _ZN15CLR_RT_Assembly10InitStringEv
080610b8 T _ZN15CLR_RT_Assembly11FindTypeDefEjR20CLR_RT_TypeDef_Index
08060f94 T _ZN15CLR_RT_Assembly11FindTypeDefEPKcS1_R20CLR_RT_TypeDef_Index
08061034 T _ZN15CLR_RT_Assembly11FindTypeDefEPKctR20CLR_RT_TypeDef_Index
08047f7c W _ZN15CLR_RT_Assembly11GetByteCodeEt
08047e4c W _ZN15CLR_RT_Assembly11GetFieldDefEt
08047f00 W _ZN15CLR_RT_Assembly11GetResourceEt
08047ea4 W _ZN15CLR_RT_Assembly11GetTypeSpecEt
080611e4 T _ZN15CLR_RT_Assembly12FindFieldDefEPK18CLR_RECORD_TYPEDEFPKcPS_tR21CLR_RT_FieldDef_Index
08047e78 W _ZN15CLR_RT_Assembly12GetMethodDefEt
08047f54 W _ZN15CLR_RT_Assembly12GetSignatureEt
0805fd18 T _ZN15CLR_RT_Assembly12Resolve_LinkEv
0806169c T _ZN15CLR_RT_Assembly12VerifyEndianEP19CLR_RECORD_ASSEMBLY
08061258 T _ZN15CLR_RT_Assembly13FindMethodDefEPK18CLR_RECORD_TYPEDEFPKcPS_tR22CLR_RT_MethodDef_Index
0805f2c8 T _ZN15CLR_RT_Assembly14CreateInstanceEPK19CLR_RECORD_ASSEMBLYRPS_
0806f444 W _ZN15CLR_RT_Assembly14GetAssemblyRefEt
0805f97c T _ZN15CLR_RT_Assembly15DestroyInstanceEv
08047f2c W _ZN15CLR_RT_Assembly15GetResourceDataEj
08047ed0 W _ZN15CLR_RT_Assembly15GetResourceFileEt
08060c2c T _ZN15CLR_RT_Assembly15Resolve_TypeDefEv
0805f9b8 T _ZN15CLR_RT_Assembly15Resolve_TypeRefEv
0805fb0c T _ZN15CLR_RT_Assembly16Resolve_FieldRefEv
08060cbc T _ZN15CLR_RT_Assembly17Resolve_MethodDefEv
0805fbdc T _ZN15CLR_RT_Assembly17Resolve_MethodRefEv
080615b8 T _ZN15CLR_RT_Assembly18ComputeHashForNameERK20CLR_RT_TypeDef_Indexj
0806162c T _ZN15CLR_RT_Assembly18ComputeHashForTypeE12CLR_DataTypej
0805f144 T _ZN15CLR_RT_Assembly19Assembly_InitializeERNS_7OffsetsE
08060f64 T _ZN15CLR_RT_Assembly19ComputeAssemblyHashEPK22CLR_RECORD_ASSEMBLYREF
08060f40 T _ZN15CLR_RT_Assembly19ComputeAssemblyHashEv
08060e40 T _ZN15CLR_RT_Assembly19PrepareForExecutionEv
0805f84c T _ZN15CLR_RT_Assembly19Resolve_AssemblyRefEb
08061344 T _ZN15CLR_RT_Assembly20FindMethodBoundariesEtRtS0_
08061440 T _ZN15CLR_RT_Assembly21Resolve_ComputeHashesEv
080613bc T _ZN15CLR_RT_Assembly25FindNextStaticConstructorER22CLR_RT_MethodDef_Index
08060db4 T _ZN15CLR_RT_Assembly28Resolve_AllocateStaticFieldsEP16CLR_RT_HeapBlock
08047df0 W _ZN15CLR_RT_Assembly8GetTableE14CLR_TABLESENUM
08061664 T _ZN15CLR_RT_Assembly8RelocateEv
0805c198 T _ZN15CLR_RT_Assembly9GetStringEt
0803f19c W _ZN15I2C_HAL_XACTION10CheckStateEh
0803f390 T _ZN15I2C_HAL_XACTION10InitializeER22I2C_USER_CONFIGURATIONPP20I2C_HAL_XACTION_UNITj
0803f14c W _ZN15I2C_HAL_XACTION11SetCallbackEPFvPvE
0803f1c8 W _ZN15I2C_HAL_XACTION15TransactedBytesEv
08040820 W _ZN15I2C_HAL_XACTION18ProcessingLastUnitEv
0803f3e0 T _ZN15I2C_HAL_XACTION6SignalEhj
0803f184 W _ZN15I2C_HAL_XACTION8GetStateEv
0803f168 W _ZN15I2C_HAL_XACTION8SetStateEh
08030354 W _ZN15MACEventHandler17GetReceiveHandlerEv
0803036c W _ZN15MACEventHandler17GetSendAckHandlerEv
0807a128 W _ZN15MACEventHandler17SetReceiveHandlerEPFvPvtE
0807a144 W _ZN15MACEventHandler17SetSendAckHandlerEPFvPvt11NetOpStatushE
0807a160 W _ZN15MACEventHandler24SetNeighborChangeHandlerEPFvsE
08046718 T _ZN15Watchdog_Driver13GetSetEnabledEjj
08046788 T _ZN15Watchdog_Driver13GetSetTimeoutEij
08046838 T _ZN15Watchdog_Driver13LastOccurenceERNS_13WatchdogEventEj
08046700 W _ZN15Watchdog_Driver13WatchdogEvent13GetDriverNameEv
080466b8 W _ZN15Watchdog_Driver13WatchdogEvent4LoadEv
080466dc W _ZN15Watchdog_Driver13WatchdogEvent6CommitEv
080467f0 T _ZN15Watchdog_Driver14GetSetBehaviorE17Watchdog_Behaviorj
08046864 T _ZN15Watchdog_Driver16WatchdogCallbackEPv
0802833c T _ZN16BlockStorageList10InitializeEv
20003384 B _ZN16BlockStorageList12s_deviceListE
08028660 T _ZN16BlockStorageList13GetNextDeviceER18BlockStorageDevice
20003394 B _ZN16BlockStorageList13s_InitializedE
08028638 T _ZN16BlockStorageList14GetFirstDeviceEv
20003390 B _ZN16BlockStorageList15s_primaryDeviceE
08028368 T _ZN16BlockStorageList17InitializeDevicesEv
0802844c T _ZN16BlockStorageList19UnInitializeDevicesEv
08028540 T _ZN16BlockStorageList28FindDeviceForPhysicalAddressEPP18BlockStorageDevicejRj
080284d4 T _ZN16BlockStorageList9AddDeviceEP18BlockStorageDeviceP19IBlockStorageDevicePvj
08021a54 T _ZN16CLR_DBG_Debugger10PurgeCacheEv
080223a0 T _ZN16CLR_DBG_Debugger12AccessMemoryEjjPhi
08023914 T _ZN16CLR_DBG_Debugger12CheckTypeDefERK20CLR_RT_TypeDef_IndexR23CLR_RT_TypeDef_Instance
08021de4 T _ZN16CLR_DBG_Debugger12Monitor_PingEP10WP_MessagePv
0802396c T _ZN16CLR_DBG_Debugger13CheckFieldDefERK21CLR_RT_FieldDef_IndexR24CLR_RT_FieldDef_Instance
20008a0d B _ZN16CLR_DBG_Debugger13fNoCompactionE
080239c4 T _ZN16CLR_DBG_Debugger14CheckMethodDefERK22CLR_RT_MethodDef_IndexR25CLR_RT_MethodDef_Instance
080217f0 T _ZN16CLR_DBG_Debugger14CreateInstanceEv
080219f8 T _ZN16CLR_DBG_Debugger14DeleteInstanceEv
080238ac T _ZN16CLR_DBG_Debugger14IsGoodAssemblyEt
080228e4 T _ZN16CLR_DBG_Debugger14Monitor_RebootEP10WP_MessagePv
080221a4 T _ZN16CLR_DBG_Debugger15CheckPermissionEji
08023a1c T _ZN16CLR_DBG_Debugger15CheckStackFrameEjjRb
080228b0 T _ZN16CLR_DBG_Debugger15Monitor_ExecuteEP10WP_MessagePv
08021a38 T _ZN16CLR_DBG_Debugger15ProcessCommandsEv
08021a20 T _ZN16CLR_DBG_Debugger16Debugger_CleanupEv
08021ac0 T _ZN16CLR_DBG_Debugger16GetThreadFromPidEj
08021c40 T _ZN16CLR_DBG_Debugger17CreateListOfCallsEjRPN16CLR_DBG_Commands22Debugging_Thread_Stack5ReplyERi
080229b8 T _ZN16CLR_DBG_Debugger17Monitor_MemoryMapEP10WP_MessagePv
080216fc T _ZN16CLR_DBG_Debugger18Debugger_DiscoveryEv
08021a6c T _ZN16CLR_DBG_Debugger18GetAppDomainFromIDEj
080226a0 T _ZN16CLR_DBG_Debugger18Monitor_ReadMemoryEP10WP_MessagePv
08021b50 T _ZN16CLR_DBG_Debugger19CreateListOfThreadsERPN16CLR_DBG_Commands21Debugging_Thread_List5ReplyERi
08021958 T _ZN16CLR_DBG_Debugger19Debugger_InitializeEi
20008a0c B _ZN16CLR_DBG_Debugger19debuggerErasedFlashE
08022798 T _ZN16CLR_DBG_Debugger19Monitor_CheckMemoryEP10WP_MessagePv
080227e8 T _ZN16CLR_DBG_Debugger19Monitor_EraseMemoryEP10WP_MessagePv
08022738 T _ZN16CLR_DBG_Debugger19Monitor_WriteMemoryEP10WP_MessagePv
080241b0 T _ZN16CLR_DBG_Debugger20Debugging_Stack_InfoEP10WP_MessagePv
08023f28 T _ZN16CLR_DBG_Debugger20Debugging_Thread_GetEP10WP_MessagePv
08025c5c T _ZN16CLR_DBG_Debugger21Debugging_Info_SetJMCEP10WP_MessagePv
080242a8 T _ZN16CLR_DBG_Debugger21Debugging_Stack_SetIPEP10WP_MessagePv
08023e24 T _ZN16CLR_DBG_Debugger21Debugging_Thread_KillEP10WP_MessagePv
08023d40 T _ZN16CLR_DBG_Debugger21Debugging_Thread_ListEP10WP_MessagePv
08022a24 T _ZN16CLR_DBG_Debugger21Monitor_DeploymentMapEP10WP_MessagePv
080255a4 T _ZN16CLR_DBG_Debugger22Debugging_Resolve_TypeEP10WP_MessagePv
08023db0 T _ZN16CLR_DBG_Debugger22Debugging_Thread_StackEP10WP_MessagePv
08022eb0 T _ZN16CLR_DBG_Debugger22Debugging_UpgradeToSslEP10WP_MessagePv
08025198 T _ZN16CLR_DBG_Debugger22Debugging_Value_AssignEP10WP_MessagePv
08021fb8 T _ZN16CLR_DBG_Debugger22Monitor_FlashSectorMapEP10WP_MessagePv
08025658 T _ZN16CLR_DBG_Debugger23Debugging_Resolve_FieldEP10WP_MessagePv
08023ed4 T _ZN16CLR_DBG_Debugger23Debugging_Thread_ResumeEP10WP_MessagePv
080240e8 T _ZN16CLR_DBG_Debugger23Debugging_Thread_UnwindEP10WP_MessagePv
0802169c T _ZN16CLR_DBG_Debugger24Debugger_WaitForCommandsEv
08022f3c T _ZN16CLR_DBG_Debugger24Debugging_MFUpdate_StartEP10WP_MessagePv
08025740 T _ZN16CLR_DBG_Debugger24Debugging_Resolve_MethodEP10WP_MessagePv
08023e80 T _ZN16CLR_DBG_Debugger24Debugging_Thread_SuspendEP10WP_MessagePv
08024ae8 T _ZN16CLR_DBG_Debugger24Debugging_Value_GetArrayEP10WP_MessagePv
08024be4 T _ZN16CLR_DBG_Debugger24Debugging_Value_GetBlockEP10WP_MessagePv
080248cc T _ZN16CLR_DBG_Debugger24Debugging_Value_GetFieldEP10WP_MessagePv
08024624 T _ZN16CLR_DBG_Debugger24Debugging_Value_GetStackEP10WP_MessagePv
08024ca0 T _ZN16CLR_DBG_Debugger24Debugging_Value_SetArrayEP10WP_MessagePv
08024c54 T _ZN16CLR_DBG_Debugger24Debugging_Value_SetBlockEP10WP_MessagePv
08023cd0 T _ZN16CLR_DBG_Debugger25Debugging_Thread_CreateExEP10WP_MessagePv
20003118 B _ZN16CLR_DBG_Debugger25m_deploymentStorageDeviceE
08025bc8 T _ZN16CLR_DBG_Debugger26Debugging_Info_SetJMC_TypeERK20CLR_RT_TypeDef_Indexb
080233c8 T _ZN16CLR_DBG_Debugger26Debugging_MFUpdate_InstallEP10WP_MessagePv
080254d4 T _ZN16CLR_DBG_Debugger26Debugging_Resolve_AssemblyEP10WP_MessagePv
080258ac T _ZN16CLR_DBG_Debugger27Debugging_Deployment_StatusEP10WP_MessagePv
08022aac T _ZN16CLR_DBG_Debugger27Debugging_Execution_BasePtrEP10WP_MessagePv
08025364 T _ZN16CLR_DBG_Debugger27Debugging_Resolve_AppDomainEP10WP_MessagePv
08022e5c T _ZN16CLR_DBG_Debugger28Debugging_Execution_AllocateEP10WP_MessagePv
08025b6c T _ZN16CLR_DBG_Debugger28Debugging_Info_SetJMC_MethodERK22CLR_RT_MethodDef_Indexb
080232b0 T _ZN16CLR_DBG_Debugger28Debugging_MFUpdate_AddPacketEP10WP_MessagePv
080252b4 T _ZN16CLR_DBG_Debugger28Debugging_TypeSys_AppDomainsEP10WP_MessagePv
080251f4 T _ZN16CLR_DBG_Debugger28Debugging_TypeSys_AssembliesEP10WP_MessagePv
0802409c T _ZN16CLR_DBG_Debugger29Debugging_Thread_GetExceptionEP10WP_MessagePv
08024e6c T _ZN16CLR_DBG_Debugger29Debugging_Value_AllocateArrayEP10WP_MessagePv
08024c18 T _ZN16CLR_DBG_Debugger29Debugging_Value_GetScratchPadEP10WP_MessagePv
08022fcc T _ZN16CLR_DBG_Debugger30Debugging_MFUpdate_AuthCommandEP10WP_MessagePv
08024d84 T _ZN16CLR_DBG_Debugger30Debugging_Value_AllocateObjectEP10WP_MessagePv
08024dec T _ZN16CLR_DBG_Debugger30Debugging_Value_AllocateStringEP10WP_MessagePv
080237f8 T _ZN16CLR_DBG_Debugger31Debugging_Execution_BreakpointsEP10WP_MessagePv
080230d8 T _ZN16CLR_DBG_Debugger31Debugging_MFUpdate_AuthenticateEP10WP_MessagePv
0802582c T _ZN16CLR_DBG_Debugger31Debugging_Resolve_VirtualMethodEP10WP_MessagePv
08024544 T _ZN16CLR_DBG_Debugger32Debugging_Value_ResizeScratchPadEP10WP_MessagePv
080231c8 T _ZN16CLR_DBG_Debugger33Debugging_MFUpdate_GetMissingPktsEP10WP_MessagePv
0802384c T _ZN16CLR_DBG_Debugger36Debugging_Execution_BreakpointStatusEP10WP_MessagePv
08022ae8 T _ZN16CLR_DBG_Debugger36Debugging_Execution_ChangeConditionsEP10WP_MessagePv
0802379c T _ZN16CLR_DBG_Debugger39Debugging_Execution_SetCurrentAppDomainEP10WP_MessagePv
08022c84 T _ZN16CLR_DBG_Debugger40Debugging_Execution_QueryCLRCapabilitiesEP10WP_MessagePv
08023700 T _ZN16CLR_DBG_Debugger8GetValueEP10WP_MessageP16CLR_RT_HeapBlockS3_P23CLR_RT_TypeDef_Instance
080600c8 T _ZN16CLR_RT_AppDomain12LoadAssemblyEP15CLR_RT_Assembly
0806096c T _ZN16CLR_RT_AppDomain13GetAssembliesER16CLR_RT_HeapBlock
08060460 T _ZN16CLR_RT_AppDomain13MarshalObjectER16CLR_RT_HeapBlockS1_PS_
0805ffcc T _ZN16CLR_RT_AppDomain13RecoverFromGCEv
0805fe9c T _ZN16CLR_RT_AppDomain14CreateInstanceEPKcRPS_
0806009c T _ZN16CLR_RT_AppDomain15DestroyInstanceEv
08060210 T _ZN16CLR_RT_AppDomain16GetManagedObjectER16CLR_RT_HeapBlock
08060790 T _ZN16CLR_RT_AppDomain17MarshalParametersEP16CLR_RT_HeapBlockS1_ibPS_
08060404 T _ZN16CLR_RT_AppDomain18VerifyTypeIsLoadedERK20CLR_RT_TypeDef_Index
08060000 T _ZN16CLR_RT_AppDomain20AppDomain_InitializeEv
08060368 T _ZN16CLR_RT_AppDomain21FindAppDomainAssemblyEP15CLR_RT_Assembly
0806005c T _ZN16CLR_RT_AppDomain22AppDomain_UninitializeEv
08060a70 T _ZN16CLR_RT_AppDomain8IsLoadedEv
080603d8 T _ZN16CLR_RT_AppDomain8RelocateEv
0804795c W _ZN16CLR_RT_HeapBlock10AssignDataERKS_
0805704c T _ZN16CLR_RT_HeapBlock10InitObjectEv
08050ac8 T _ZN16CLR_RT_HeapBlock10NumericAddERKS_
08050e08 T _ZN16CLR_RT_HeapBlock10NumericDivERKS_
08050d10 T _ZN16CLR_RT_HeapBlock10NumericMulERKS_
08051294 T _ZN16CLR_RT_HeapBlock10NumericNegEv
08050f74 T _ZN16CLR_RT_HeapBlock10NumericRemERKS_
08051120 T _ZN16CLR_RT_HeapBlock10NumericShlERKS_
08051190 T _ZN16CLR_RT_HeapBlock10NumericShrERKS_
08050bec T _ZN16CLR_RT_HeapBlock10NumericSubERKS_
08047470 W _ZN16CLR_RT_HeapBlock10ResetFlagsEh
080475dc W _ZN16CLR_RT_HeapBlock10SetBooleanEb
08047638 W _ZN16CLR_RT_HeapBlock10SetIntegerEi
0804760c W _ZN16CLR_RT_HeapBlock10SetIntegerEih
0804765c W _ZN16CLR_RT_HeapBlock10SetIntegerEj
080212a0 W _ZN16CLR_RT_HeapBlock10SetIntegerERKx
08047680 W _ZN16CLR_RT_HeapBlock10SetIntegerERKy
0806f41c W _ZN16CLR_RT_HeapBlock10SetIntegerEt
0804fdfc T _ZN16CLR_RT_HeapBlock11GetHashCodeEPS_bj
08021354 W _ZN16CLR_RT_HeapBlock12NumericByRefEv
08050ee0 T _ZN16CLR_RT_HeapBlock12NumericDivUnERKS_
08051098 T _ZN16CLR_RT_HeapBlock12NumericRemUnERKS_
08051224 T _ZN16CLR_RT_HeapBlock12NumericShrUnERKS_
0804ffdc T _ZN16CLR_RT_HeapBlock12ObjectsEqualERKS_S1_b
080514dc T _ZN16CLR_RT_HeapBlock12Relocate_ClsEv
080514c4 T _ZN16CLR_RT_HeapBlock12Relocate_ObjEv
0805150c T _ZN16CLR_RT_HeapBlock12Relocate_RefEv
0804eec4 T _ZN16CLR_RT_HeapBlock12SetObjectClsERK20CLR_RT_TypeDef_Index
08047780 W _ZN16CLR_RT_HeapBlock12SetReferenceERS_
0804f98c T _ZN16CLR_RT_HeapBlock13PerformBoxingERK23CLR_RT_TypeDef_Instance
080478bc W _ZN16CLR_RT_HeapBlock13SetObjectLockEP21CLR_RT_HeapBlock_Lock
0804ede4 T _ZN16CLR_RT_HeapBlock13SetReflectionERK20CLR_RT_TypeDef_Index
0804ed5c T _ZN16CLR_RT_HeapBlock13SetReflectionERK21CLR_RT_Assembly_Index
0804ee20 T _ZN16CLR_RT_HeapBlock13SetReflectionERK21CLR_RT_FieldDef_Index
0804ed98 T _ZN16CLR_RT_HeapBlock13SetReflectionERK21CLR_RT_TypeSpec_Index
0804ee5c T _ZN16CLR_RT_HeapBlock13SetReflectionERK22CLR_RT_MethodDef_Index
0804ed28 T _ZN16CLR_RT_HeapBlock13SetReflectionERK26CLR_RT_ReflectionDef_Index
08047868 W _ZN16CLR_RT_HeapBlock13SetStringTextEPKcP15CLR_RT_Assembly
08021228 W _ZN16CLR_RT_HeapBlock14ChangeDataTypeEj
080505e0 T _ZN16CLR_RT_HeapBlock14Compare_ValuesERKS_S1_b
08026aec W _ZN16CLR_RT_HeapBlock14ReflectionDataEv
08047454 W _ZN16CLR_RT_HeapBlock15ChangeDataFlagsEj
0804757c W _ZN16CLR_RT_HeapBlock15MarkForcedAliveEv
0804fb00 T _ZN16CLR_RT_HeapBlock15PerformUnboxingERK23CLR_RT_TypeDef_Instance
080514a0 T _ZN16CLR_RT_HeapBlock15Relocate_StringEv
08057138 T _ZN16CLR_RT_HeapBlock16Convert_InternalE12CLR_DataType
0804749c W _ZN16CLR_RT_HeapBlock16Debug_ClearBlockEi
0804ebf0 T _ZN16CLR_RT_HeapBlock16InitializeToZeroEv
080476fc W _ZN16CLR_RT_HeapBlock16SetFloatFromBitsEj
0804f214 T _ZN16CLR_RT_HeapBlock16StoreToReferenceERS_i
0804f028 T _ZN16CLR_RT_HeapBlock17LoadFromReferenceERS_
08051524 T _ZN16CLR_RT_HeapBlock17Relocate_ArrayRefEv
08047718 W _ZN16CLR_RT_HeapBlock17SetDoubleFromBitsERKy
08047594 W _ZN16CLR_RT_HeapBlock17UnmarkForcedAliveEv
080474b0 W _ZN16CLR_RT_HeapBlock18Debug_CheckPointerEPv
0804fc20 T _ZN16CLR_RT_HeapBlock18FixBoxingReferenceEv
080212cc W _ZN16CLR_RT_HeapBlock18SetObjectReferenceEPKS_
08051414 T _ZN16CLR_RT_HeapBlock19Relocate__HeapBlockEv
08047998 W _ZN16CLR_RT_HeapBlock21AssignAndPreserveTypeERKS_
08047a90 W _ZN16CLR_RT_HeapBlock21Compare_Signed_ValuesERKS_S1_
0804ec20 T _ZN16CLR_RT_HeapBlock21EnsureObjectReferenceERPS_
0804f8a8 T _ZN16CLR_RT_HeapBlock21PerformBoxingIfNeededEv
08047908 W _ZN16CLR_RT_HeapBlock21SetBinaryBlobHandlersEPFvP27CLR_RT_HeapBlock_BinaryBlobES3_
08047a70 W _ZN16CLR_RT_HeapBlock23Compare_Unsigned_ValuesERKS_S1_
0804ef0c T _ZN16CLR_RT_HeapBlock24InitializeArrayReferenceERS_i
0805153c T _ZN16CLR_RT_HeapBlock25Relocate_TransparentProxyEv
08047314 W _ZN16CLR_RT_HeapBlock27CLR_RT_HeapBlock_AtomicData7Numeric2R8aSEd
08047410 W _ZN16CLR_RT_HeapBlock27CLR_RT_HeapBlock_AtomicData7Numeric2R8dvERKS2_
08047388 W _ZN16CLR_RT_HeapBlock27CLR_RT_HeapBlock_AtomicData7Numeric2R8mIERKS2_
080473cc W _ZN16CLR_RT_HeapBlock27CLR_RT_HeapBlock_AtomicData7Numeric2R8mlERKS2_
08047344 W _ZN16CLR_RT_HeapBlock27CLR_RT_HeapBlock_AtomicData7Numeric2R8pLERKS2_
08021198 W _ZN16CLR_RT_HeapBlock27CLR_RT_HeapBlock_AtomicData7Numeric2S8aSEx
08047200 W _ZN16CLR_RT_HeapBlock27CLR_RT_HeapBlock_AtomicData7Numeric2S8dvERKS2_
08047170 W _ZN16CLR_RT_HeapBlock27CLR_RT_HeapBlock_AtomicData7Numeric2S8mIERKS2_
080471ac W _ZN16CLR_RT_HeapBlock27CLR_RT_HeapBlock_AtomicData7Numeric2S8mlERKS2_
08047134 W _ZN16CLR_RT_HeapBlock27CLR_RT_HeapBlock_AtomicData7Numeric2S8pLERKS2_
08047244 W _ZN16CLR_RT_HeapBlock27CLR_RT_HeapBlock_AtomicData7Numeric2S8rMERKS2_
0804728c W _ZN16CLR_RT_HeapBlock27CLR_RT_HeapBlock_AtomicData7Numeric2S8rSEj
08046ff8 W _ZN16CLR_RT_HeapBlock27CLR_RT_HeapBlock_AtomicData7Numeric2U8aNERKS2_
08046e48 W _ZN16CLR_RT_HeapBlock27CLR_RT_HeapBlock_AtomicData7Numeric2U8aSEy
08046f84 W _ZN16CLR_RT_HeapBlock27CLR_RT_HeapBlock_AtomicData7Numeric2U8coEv
08046f40 W _ZN16CLR_RT_HeapBlock27CLR_RT_HeapBlock_AtomicData7Numeric2U8dvERKS2_
08047060 W _ZN16CLR_RT_HeapBlock27CLR_RT_HeapBlock_AtomicData7Numeric2U8eOERKS2_
080470e4 W _ZN16CLR_RT_HeapBlock27CLR_RT_HeapBlock_AtomicData7Numeric2U8lSEj
08046eb0 W _ZN16CLR_RT_HeapBlock27CLR_RT_HeapBlock_AtomicData7Numeric2U8mIERKS2_
08046eec W _ZN16CLR_RT_HeapBlock27CLR_RT_HeapBlock_AtomicData7Numeric2U8mlERKS2_
0804702c W _ZN16CLR_RT_HeapBlock27CLR_RT_HeapBlock_AtomicData7Numeric2U8oRERKS2_
08046e74 W _ZN16CLR_RT_HeapBlock27CLR_RT_HeapBlock_AtomicData7Numeric2U8pLERKS2_
08046fb0 W _ZN16CLR_RT_HeapBlock27CLR_RT_HeapBlock_AtomicData7Numeric2U8rMERKS2_
08047094 W _ZN16CLR_RT_HeapBlock27CLR_RT_HeapBlock_AtomicData7Numeric2U8rSEj
0804f810 T _ZN16CLR_RT_HeapBlock28AssignAndPinReferencedObjectERKS_
0805133c T _ZN16CLR_RT_HeapBlock28SetTransparentProxyReferenceEP16CLR_RT_AppDomainPS_
080479f0 W _ZN16CLR_RT_HeapBlock29AssignPreserveTypeCheckPinnedERKS_
0804efcc T _ZN16CLR_RT_HeapBlock30FixArrayReferenceForValueTypesEv
0804efa0 T _ZN16CLR_RT_HeapBlock30InitializeArrayReferenceDirectER22CLR_RT_HeapBlock_Arrayi
080475ac W _ZN16CLR_RT_HeapBlock3BoxEv
08047534 W _ZN16CLR_RT_HeapBlock3PinEv
080475c4 W _ZN16CLR_RT_HeapBlock5UnboxEv
0804754c W _ZN16CLR_RT_HeapBlock5UnpinEv
08021444 W _ZN16CLR_RT_HeapBlock6AssignERKS_
08047a40 W _ZN16CLR_RT_HeapBlock7ConvertE12CLR_DataTypebb
0804fd78 T _ZN16CLR_RT_HeapBlock7PromoteEv
08047564 W _ZN16CLR_RT_HeapBlock8MarkDeadEv
0804f604 T _ZN16CLR_RT_HeapBlock8ReassignERKS_
080275a4 W _ZN16CLR_RT_HeapBlock8SetFlagsEh
080476ac W _ZN16CLR_RT_HeapBlock8SetFloatEf
08025d2c W _ZN16CLR_RT_HeapBlock9ClearDataEv
080275c8 W _ZN16CLR_RT_HeapBlock9MarkAliveEv
0802120c W _ZN16CLR_RT_HeapBlock9SetDataIdEj
080476d0 W _ZN16CLR_RT_HeapBlock9SetDoubleEd
0805c1e8 T _ZN16CLR_RT_SubThread14CreateInstanceEP13CLR_RT_ThreadP17CLR_RT_StackFrameiRPS_
0805c278 T _ZN16CLR_RT_SubThread15DestroyInstanceEP13CLR_RT_ThreadPS_i
0805c358 T _ZN16CLR_RT_SubThread22ChangeLockRequestCountEi
0803d1f0 T _ZN16DiscoveryHandler10InitializeEhh
0803d4f8 T _ZN16DiscoveryHandler12ExecuteEventEv
0803d564 T _ZN16DiscoveryHandler12FailsafeStopEv
0803d578 T _ZN16DiscoveryHandler12ShouldBeaconEv
0803d5f0 T _ZN16DiscoveryHandler13CreateMessageEP12DiscoveryMsg
0803d704 T _ZN16DiscoveryHandler16BeaconAckHandlerEP7MessageI19IEEE802_15_4_HeaderLt95E19IEEE802_15_4_Footer21IEEE802_15_4_MetadataEh11NetOpStatus
0803d47c T _ZN16DiscoveryHandler16NextEventinSlotsERKy
0803d548 T _ZN16DiscoveryHandler16PostExecuteEventEv
0803d7ac T _ZN16DiscoveryHandler19BeaconNTimerHandlerEv
0803d998 T _ZN16DiscoveryHandler4SendEtP7MessageI19IEEE802_15_4_HeaderLt95E19IEEE802_15_4_Footer21IEEE802_15_4_MetadataEty
0803d590 T _ZN16DiscoveryHandler6BeaconEtP7MessageI19IEEE802_15_4_HeaderLt95E19IEEE802_15_4_Footer21IEEE802_15_4_MetadataE
0803d724 T _ZN16DiscoveryHandler7Beacon1Ev
0803d774 T _ZN16DiscoveryHandler7BeaconNEv
0803d7dc T _ZN16DiscoveryHandler7ReceiveEtP12DiscoveryMsg
0803d32c T _ZN16DiscoveryHandler9NextEventEv
         U _ZN16DiscoveryHandlerD1Ev
080296f4 T _ZN16HAL_CONFIG_BLOCK11ApplyConfigEPKcPvjPS2_
080296d8 T _ZN16HAL_CONFIG_BLOCK19UpdateBlockWithNameEPKcPvjj
0803b520 T _ZN16HAL_CONTINUATION12UninitializeEv
0803b3f4 T _ZN16HAL_CONTINUATION14InitializeListEv
0803b4f8 T _ZN16HAL_CONTINUATION18InitializeCallbackEPFvPvES0_
0803b47c T _ZN16HAL_CONTINUATION19Dequeue_And_ExecuteEv
0803b450 T _ZN16HAL_CONTINUATION5AbortEv
0803b408 T _ZN16HAL_CONTINUATION7EnqueueEv
0803b3d8 T _ZN16HAL_CONTINUATION8IsLinkedEv
08045b78 W _ZN16VirtualTimerInfo12get_m_periodEv
08045b5c W _ZN16VirtualTimerInfo12set_m_periodEj
08045c14 W _ZN16VirtualTimerInfo14get_m_callbackEv
08045c48 W _ZN16VirtualTimerInfo14get_m_reservedEv
0803a9d0 W _ZN16VirtualTimerInfo14get_m_timer_idEv
08045bf8 W _ZN16VirtualTimerInfo14set_m_callBackEPFvPvE
08045c2c W _ZN16VirtualTimerInfo14set_m_reservedEb
08045b0c W _ZN16VirtualTimerInfo14set_m_timer_idEh
08045be0 W _ZN16VirtualTimerInfo16get_m_is_runningEv
08045bc4 W _ZN16VirtualTimerInfo16set_m_is_runningEj
08045bac W _ZN16VirtualTimerInfo17get_m_is_one_shotEv
08045b44 W _ZN16VirtualTimerInfo17get_m_start_delayEv
08045b90 W _ZN16VirtualTimerInfo17set_m_is_one_shotEj
08045b28 W _ZN16VirtualTimerInfo17set_m_start_delayEj
08045af0 W _ZN16VirtualTimerInfo23get_m_ticks_when_match_Ev
08045ad0 W _ZN16VirtualTimerInfo23set_m_ticks_when_match_Ey
080489ac T _ZN17CLR_RT_EventCache11Append_NodeEP16CLR_RT_HeapBlock
08048c38 T _ZN17CLR_RT_EventCache12Extract_NodeEjjj
08048ce8 T _ZN17CLR_RT_EventCache16FreeInlineBufferEP19CLR_RT_InlineBuffer
08048b68 T _ZN17CLR_RT_EventCache17Extract_Node_FastEjjj
08048a14 T _ZN17CLR_RT_EventCache17Extract_Node_SlowEjjj
08048c78 T _ZN17CLR_RT_EventCache17FindVirtualMethodERK20CLR_RT_TypeDef_IndexRK22CLR_RT_MethodDef_IndexRS3_
08048904 T _ZN17CLR_RT_EventCache18EventCache_CleanupEv
08048c00 T _ZN17CLR_RT_EventCache18Extract_Node_BytesEjjj
08048508 T _ZN17CLR_RT_EventCache18VirtualMethodTable10InitializeEv
0804840c W _ZN17CLR_RT_EventCache18VirtualMethodTable11GetNewEntryEv
080487b0 T _ZN17CLR_RT_EventCache18VirtualMethodTable14MoveEntryToTopEPNS_4LinkEjj
08048600 T _ZN17CLR_RT_EventCache18VirtualMethodTable17FindVirtualMethodERK20CLR_RT_TypeDef_IndexRK22CLR_RT_MethodDef_IndexRS4_
08048ca4 T _ZN17CLR_RT_EventCache20GetInlineFrameBufferEPP19CLR_RT_InlineBuffer
0804883c T _ZN17CLR_RT_EventCache21EventCache_InitializeEv
0806373c W _ZN17CLR_RT_StackFrame10MethodCallEv
080554c0 T _ZN17CLR_RT_StackFrame10PushInlineERPKhRP15CLR_RT_AssemblyRP16CLR_RT_HeapBlockR25CLR_RT_MethodDef_InstanceS7_
08048104 W _ZN17CLR_RT_StackFrame10ResetStackEv
08074a44 W _ZN17CLR_RT_StackFrame11PushValueI4Ei
08056684 T _ZN17CLR_RT_StackFrame12NegateResultEv
08055834 T _ZN17CLR_RT_StackFrame12RestoreStackER18CLR_RT_InlineFrame
08056564 T _ZN17CLR_RT_StackFrame12SetResult_I4Ei
08056584 T _ZN17CLR_RT_StackFrame12SetResult_I8ERx
08056520 T _ZN17CLR_RT_StackFrame12SetResult_R4Ef
08056540 T _ZN17CLR_RT_StackFrame12SetResult_R8Ed
080565a4 T _ZN17CLR_RT_StackFrame12SetResult_U4Ej
080565c4 T _ZN17CLR_RT_StackFrame12SetResult_U8ERy
080566b8 T _ZN17CLR_RT_StackFrame12SetupTimeoutER16CLR_RT_HeapBlockRPx
08056608 T _ZN17CLR_RT_StackFrame16SetResult_ObjectEP16CLR_RT_HeapBlock
08056628 T _ZN17CLR_RT_StackFrame16SetResult_StringEPKc
08021594 W _ZN17CLR_RT_StackFrame16TopValuePositionEv
08048120 W _ZN17CLR_RT_StackFrame17PushValueAndClearEv
080565e4 T _ZN17CLR_RT_StackFrame17SetResult_BooleanEb
08056078 T _ZN17CLR_RT_StackFrame18HandleSynchronizedEbb
0805687c T _ZN17CLR_RT_StackFrame18NotImplementedStubEv
08048144 W _ZN17CLR_RT_StackFrame18PushValueAndAssignERK16CLR_RT_HeapBlock
08056650 T _ZN17CLR_RT_StackFrame22ConvertResultToBooleanEv
080558f8 T _ZN17CLR_RT_StackFrame22PopAppDomainTransitionEv
080557bc T _ZN17CLR_RT_StackFrame22RestoreFromInlineStackEv
08055b1c T _ZN17CLR_RT_StackFrame23PushAppDomainTransitionEP13CLR_RT_ThreadRK25CLR_RT_MethodDef_InstanceP16CLR_RT_HeapBlockS6_
080561a4 T _ZN17CLR_RT_StackFrame3PopEv
08055168 T _ZN17CLR_RT_StackFrame4PushEP13CLR_RT_ThreadRK25CLR_RT_MethodDef_Instancei
08048168 W _ZN17CLR_RT_StackFrame6CallerEv
08055e9c T _ZN17CLR_RT_StackFrame7FixCallEv
08055c20 T _ZN17CLR_RT_StackFrame8MakeCallE25CLR_RT_MethodDef_InstanceP16CLR_RT_HeapBlockS2_i
080480d4 W _ZN17CLR_RT_StackFrame8PopValueEv
08056730 T _ZN17CLR_RT_StackFrame8RelocateEv
0804808c W _ZN17CLR_RT_StackFrame8TopValueEv
08055714 T _ZN17CLR_RT_StackFrame9PopInlineEv
080480a8 W _ZN17CLR_RT_StackFrame9PushValueEv
080558a4 T _ZN17CLR_RT_StackFrame9SaveStackER18CLR_RT_InlineFrame
080564f8 T _ZN17CLR_RT_StackFrame9SetResultEi12CLR_DataType
08075c58 W _ZN17CLR_RT_TypedArrayIhE9GetBufferEv
080759ec W _ZN17CLR_RT_TypedArrayIhEC1Ev
080759ec W _ZN17CLR_RT_TypedArrayIhEC2Ev
080795b0 W _ZN17CLR_RT_TypedArrayIjEC1Ev
080795b0 W _ZN17CLR_RT_TypedArrayIjEC2Ev
0807b098 W _ZN17CLR_RT_TypedArrayIsE9GetBufferEv
08079bfc W _ZN17CLR_RT_TypedArrayIsEC1Ev
08079bfc W _ZN17CLR_RT_TypedArrayIsEC2Ev
08077aa4 W _ZN17CLR_RT_TypedArrayItE9GetBufferEv
08077030 W _ZN17CLR_RT_TypedArrayItEC1Ev
08077030 W _ZN17CLR_RT_TypedArrayItEC2Ev
080795d4 W _ZN17CLR_RT_TypedArrayIyEC1Ev
080795d4 W _ZN17CLR_RT_TypedArrayIyEC2Ev
0806207c T _ZN17CLR_RT_TypeSystem10ResolveAllEv
08061a08 T _ZN17CLR_RT_TypeSystem11FindTypeDefEjR20CLR_RT_TypeDef_Index
08061a78 T _ZN17CLR_RT_TypeSystem11FindTypeDefEPKcP15CLR_RT_AssemblyR20CLR_RT_TypeDef_Index
08061c7c T _ZN17CLR_RT_TypeSystem11FindTypeDefEPKcP15CLR_RT_AssemblyR26CLR_RT_ReflectionDef_Index
080618f4 T _ZN17CLR_RT_TypeSystem11FindTypeDefEPKcS1_P15CLR_RT_AssemblyR20CLR_RT_TypeDef_Index
08061994 T _ZN17CLR_RT_TypeSystem11FindTypeDefEPKcS1_R20CLR_RT_TypeDef_Index
0806184c T _ZN17CLR_RT_TypeSystem12FindAssemblyEPKcPK18CLR_RECORD_VERSIONb
080628f8 T _ZN17CLR_RT_TypeSystem13BuildTypeNameERK20CLR_RT_TypeDef_IndexRPcRj
08062924 T _ZN17CLR_RT_TypeSystem13BuildTypeNameERK20CLR_RT_TypeDef_IndexRPcRjjj
08062b68 T _ZN17CLR_RT_TypeSystem14BuildFieldNameERK21CLR_RT_FieldDef_IndexRPcRj
08061f84 T _ZN17CLR_RT_TypeSystem14LocateResourceE24CLR_RT_Assembly_InstanceisRPK19CLR_RECORD_RESOURCERj
080626ec T _ZN17CLR_RT_TypeSystem14MatchSignatureER22CLR_RT_SignatureParserS1_
08062ac8 T _ZN17CLR_RT_TypeSystem15BuildMethodNameERK22CLR_RT_MethodDef_IndexRPcRj
08061f00 T _ZN17CLR_RT_TypeSystem18LocateResourceFileE24CLR_RT_Assembly_InstancePKcRi
08061734 T _ZN17CLR_RT_TypeSystem18TypeSystem_CleanupEv
08062634 T _ZN17CLR_RT_TypeSystem19PrepareForExecutionEv
080628a8 T _ZN17CLR_RT_TypeSystem19QueueStringToBufferERPcRjPKc
08062d38 T _ZN17CLR_RT_TypeSystem20FindVirtualMethodDefERK20CLR_RT_TypeDef_IndexRK22CLR_RT_MethodDef_IndexPKcRS3_
08062c08 T _ZN17CLR_RT_TypeSystem20FindVirtualMethodDefERK20CLR_RT_TypeDef_IndexRK22CLR_RT_MethodDef_IndexRS3_
0806272c T _ZN17CLR_RT_TypeSystem20MatchSignatureDirectER22CLR_RT_SignatureParserS1_b
080627c4 T _ZN17CLR_RT_TypeSystem21MatchSignatureElementERN22CLR_RT_SignatureParser7ElementES2_b
080617fc T _ZN17CLR_RT_TypeSystem21PostLinkageProcessingEP15CLR_RT_Assembly
08061704 T _ZN17CLR_RT_TypeSystem21TypeSystem_InitializeEv
08062e68 T _ZN17CLR_RT_TypeSystem24MapDataTypeToElementTypeE12CLR_DataType
080625c0 T _ZN17CLR_RT_TypeSystem25PrepareForExecutionHelperEPKc
0806178c T _ZN17CLR_RT_TypeSystem4LinkEP15CLR_RT_Assembly
0803b554 W _ZN17HAL_DblLinkedListI16HAL_CONTINUATIONE10InitializeEv
0803b6ac W _ZN17HAL_DblLinkedListI16HAL_CONTINUATIONE10LinkAtBackEPS0_
0803b660 W _ZN17HAL_DblLinkedListI16HAL_CONTINUATIONE16ExtractFirstNodeEv
0803b5f4 W _ZN17HAL_DblLinkedListI16HAL_CONTINUATIONE16InsertBeforeNodeEPS0_S2_
0803b73c W _ZN17HAL_DblLinkedListI16HAL_CONTINUATIONE6InsertEPS0_S2_S2_
08046a08 W _ZN17HAL_DblLinkedListI16PalEventListenerE10InitializeEv
08028f04 W _ZN17HAL_DblLinkedListI18BlockStorageDeviceE10InitializeEv
08028fc4 W _ZN17HAL_DblLinkedListI18BlockStorageDeviceE10LinkAtBackEPS0_
08029060 W _ZN17HAL_DblLinkedListI18BlockStorageDeviceE16InsertBeforeNodeEPS0_S2_
080290dc W _ZN17HAL_DblLinkedListI18BlockStorageDeviceE6InsertEPS0_S2_S2_
0802c708 W _ZN17HAL_DblLinkedNodeI16HAL_CONTINUATIONE10InitializeEv
0803b704 W _ZN17HAL_DblLinkedNodeI16HAL_CONTINUATIONE14RemoveFromListEv
0803b5b0 W _ZN17HAL_DblLinkedNodeI16HAL_CONTINUATIONE6UnlinkEv
08028fa4 W _ZN17HAL_DblLinkedNodeI18BlockStorageDeviceE10InitializeEv
080290a4 W _ZN17HAL_DblLinkedNodeI18BlockStorageDeviceE14RemoveFromListEv
08028f60 W _ZN17HAL_DblLinkedNodeI18BlockStorageDeviceE6UnlinkEv
08042138 T _ZN17P30BF65NOR_Driver10EraseBlockEj
08041f10 T _ZN17P30BF65NOR_Driver10InitializeEv
0804242c T _ZN17P30BF65NOR_Driver10ReadBufferEPtjj
08042208 T _ZN17P30BF65NOR_Driver11BlockUnlockEj
0804239c T _ZN17P30BF65NOR_Driver11WriteBufferEPtjj
080423f8 T _ZN17P30BF65NOR_Driver12ReadHalfWordEj
080420b0 T _ZN17P30BF65NOR_Driver13IsBlockLockedEj
080422a4 T _ZN17P30BF65NOR_Driver13WriteHalfWordEjt
08042474 T _ZN17P30BF65NOR_Driver16ReturnToReadModeEv
08042284 T _ZN17P30BF65NOR_Driver19ClearStatusRegisterEv
080420fc T _ZN17P30BF65NOR_Driver6ReadIDEv
08042494 T _ZN17P30BF65NOR_Driver9GetStatusEj
0804251c T _ZN17P30BF65NOR_Driver9GetStatusEv
080322e8 W _ZN17RadioEventHandler17GetReceiveHandlerEv
08032300 W _ZN17RadioEventHandler17GetSendAckHandlerEv
08029774 W _ZN17RadioEventHandler17SetReceiveHandlerEPFPvS0_tE
08029790 W _ZN17RadioEventHandler17SetSendAckHandlerEPFvPvt11NetOpStatushE
08032318 W _ZN17RadioEventHandler24GetRadioInterruptHandlerEv
080297ac W _ZN17RadioEventHandler24SetRadioInterruptHandlerEPFj14RadioInterruptPvE
08042a38 T _ZN17STM32_AITC_Driver10InitializeEv
20002010 D _ZN17STM32_AITC_Driver10s_IsrTableE
080440c0 T _ZN17STM32_AITC_Driver14IRQToIRQVectorEj
080440f8 T _ZN17STM32_AITC_Driver14STUB_ISRVectorEPv
08044074 T _ZN17STM32_AITC_Driver15InterruptEnableEj
08042ad0 T _ZN17STM32_AITC_Driver17ActivateInterruptEjjPFvPvES0_
08042b34 T _ZN17STM32_AITC_Driver19DeactivateInterruptEj
0802a460 W _ZN17Timer16Bit_Driver10GetCounterEj
0802ef9c T _ZN17Timer16Bit_Driver10InitializeEjjjPFvPvES0_
0802f764 T _ZN17Timer16Bit_Driver10RCC_DeInitEj
0802a3d8 W _ZN17Timer16Bit_Driver10SetCompareEjj
0802f74c T _ZN17Timer16Bit_Driver11GetMaxTicksEv
0802a364 W _ZN17Timer16Bit_Driver14ForceInterruptEj
0802a4d8 W _ZN17Timer16Bit_Driver16DidTimerOverFlowEj
0802a558 W _ZN17Timer16Bit_Driver18ClearTimerOverFlowEj
2000339c B _ZN17Timer16Bit_Driver18m_timeOverFlowFlagE
0802eea4 W _ZN17Timer16Bit_Driver22EnableCompareInterruptEj
0802ef20 W _ZN17Timer16Bit_Driver23DisableCompareInterruptEj
0802f7c0 T _ZN17Timer16Bit_Driver8RCC_InitEjj
08020438 W _ZN18BlockStorageDevice13GetDeviceInfoEv
08020e78 W _ZN18BlockStorageDevice13IsBlockErasedEjj
0802829c W _ZN18BlockStorageDevice16InitializeDeviceEv
080282dc W _ZN18BlockStorageDevice17FindForBlockUsageEjRjS0_S0_
0802830c W _ZN18BlockStorageDevice18FindNextUsageBlockEjRjS0_S0_
08020f10 W _ZN18BlockStorageDevice18MaxBlockErase_uSecEv
080282bc W _ZN18BlockStorageDevice18UninitializeDeviceEv
08020ef0 W _ZN18BlockStorageDevice19MaxSectorWrite_uSecEv
08020ec4 W _ZN18BlockStorageDevice21FindRegionFromAddressEjRjS0_
08020458 W _ZN18BlockStorageDevice4ReadEjjPh
08020e48 W _ZN18BlockStorageDevice5WriteEjjPhj
080286b0 T _ZN18BlockStorageStream10InitializeEj
080286d0 T _ZN18BlockStorageStream10InitializeEjP18BlockStorageDevice
08028944 T _ZN18BlockStorageStream10NextStreamEv
08028790 T _ZN18BlockStorageStream10PrevStreamEv
08028770 T _ZN18BlockStorageStream14CurrentAddressEv
08028c2c T _ZN18BlockStorageStream4ReadEPPhj
08028b28 T _ZN18BlockStorageStream4SeekEiNS_10SeekOriginE
080545e4 T _ZN18CLR_RT_HeapCluster13ExtractBlocksEjjj
080548f8 T _ZN18CLR_RT_HeapCluster13InsertInOrderEP21CLR_RT_HeapBlock_Nodej
08054798 T _ZN18CLR_RT_HeapCluster13RecoverFromGCEv
08047fe4 W _ZN18CLR_RT_HeapCluster13ValidateBlockEP16CLR_RT_HeapBlock
080544f4 T _ZN18CLR_RT_HeapCluster22HeapCluster_InitializeEjj
0803faec T _ZN18STM32F10x_blDriver10EraseBlockEPvj
0803f7d8 T _ZN18STM32F10x_blDriver13GetDeviceInfoEPv
0803fabc T _ZN18STM32F10x_blDriver13IsBlockErasedEPvjj
0803fb20 T _ZN18STM32F10x_blDriver13SetPowerStateEPvj
0803f7a8 T _ZN18STM32F10x_blDriver16InitializeDeviceEPv
0803fa84 T _ZN18STM32F10x_blDriver17GetSectorMetadataEPvjP14SectorMetadata
0803faa0 T _ZN18STM32F10x_blDriver17SetSectorMetadataEPvjP14SectorMetadata
0803fb54 T _ZN18STM32F10x_blDriver18MaxBlockErase_uSecEPv
0803f7c0 T _ZN18STM32F10x_blDriver18UninitializeDeviceEPv
0803fb34 T _ZN18STM32F10x_blDriver19MaxSectorWrite_uSecEPv
0803f7f4 T _ZN18STM32F10x_blDriver4ReadEPvjjPh
0803f814 T _ZN18STM32F10x_blDriver5WriteEPvjjPhj
0803f9d4 T _ZN18STM32F10x_blDriver6MemsetEPvjhj
08045ccc T _ZN18VirtualTimerMapper10InitializeEtt
08045fe4 T _ZN18VirtualTimerMapper10StartTimerEh
08045f38 T _ZN18VirtualTimerMapper11ChangeTimerEhjjj
08045c60 W _ZN18VirtualTimerMapper20VirtTimerIndexMapperEhRh
08045d74 T _ZN18VirtualTimerMapper8SetTimerEhjjjjPFvPvE
080461f4 T _ZN18VirtualTimerMapper9StopTimerEh
0805ef60 T _ZN19CLR_RECORD_ASSEMBLY19ComputeAssemblyHashEPKcRK18CLR_RECORD_VERSION
0807eb94 T _ZN19LCD_PCF85162_Driver10InitializeEv
0807eca4 T _ZN19LCD_PCF85162_Driver12UninitializeEv
0807ed54 T _ZN19LCD_PCF85162_Driver13ClearI2CErrorEv
0807f5d0 T _ZN19LCD_PCF85162_Driver13WriteRawBytesEiiii
0807f8e0 T _ZN19LCD_PCF85162_Driver5BlinkEi
0807f150 T _ZN19LCD_PCF85162_Driver5SetDPEbbbb
0807ed90 T _ZN19LCD_PCF85162_Driver5WriteEiiii
0807f1e4 T _ZN19LCD_PCF85162_Driver6WriteNEii
08030384 W _ZN19PacketTimeSync_15_411SenderDelayEP7MessageI19IEEE802_15_4_HeaderLt95E19IEEE802_15_4_Footer21IEEE802_15_4_MetadataEh
0802c7cc W _ZN19PacketTimeSync_15_49EventTimeEP7MessageI19IEEE802_15_4_HeaderLt95E19IEEE802_15_4_Footer21IEEE802_15_4_MetadataEh
08025f2c W _ZN20CLR_RT_DblLinkedList10LinkAtBackEP21CLR_RT_HeapBlock_Node
0804eb88 T _ZN20CLR_RT_DblLinkedList10NumOfNodesEv
08025f08 W _ZN20CLR_RT_DblLinkedList11LinkAtFrontEP21CLR_RT_HeapBlock_Node
08025e34 W _ZN20CLR_RT_DblLinkedList12ValidateListEv
08025ec0 W _ZN20CLR_RT_DblLinkedList15InsertAfterNodeEP21CLR_RT_HeapBlock_NodeS1_
08047b40 W _ZN20CLR_RT_DblLinkedList16ExtractFirstNodeEv
08025e78 W _ZN20CLR_RT_DblLinkedList16InsertBeforeNodeEP21CLR_RT_HeapBlock_NodeS1_
0804eb5c T _ZN20CLR_RT_DblLinkedList21DblLinkedList_ReleaseEv
0804eafc T _ZN20CLR_RT_DblLinkedList24DblLinkedList_InitializeEv
0804eb28 T _ZN20CLR_RT_DblLinkedList25DblLinkedList_PushToCacheEv
08025e48 W _ZN20CLR_RT_DblLinkedList6InsertEP21CLR_RT_HeapBlock_NodeS1_S1_
0804ebd0 T _ZN20CLR_RT_DblLinkedList8RelocateEv
08047b6c W _ZN20CLR_RT_DblLinkedListC1Ev
08047b6c W _ZN20CLR_RT_DblLinkedListC2Ev
08021690 W _ZN20CLR_RT_EmulatorHooks28Notify_ExecutionStateChangedEv
0804cd40 T _ZN20CLR_RT_ProtectFromGC10InitializeEPPvPFvS0_E
0804cce8 T _ZN20CLR_RT_ProtectFromGC10InitializeER16CLR_RT_HeapBlock
0804cdb8 T _ZN20CLR_RT_ProtectFromGC6InvokeEv
0804cd84 T _ZN20CLR_RT_ProtectFromGC7CleanupEv
20008a10 B _ZN20CLR_RT_ProtectFromGC7s_firstE
0804cdfc T _ZN20CLR_RT_ProtectFromGC9InvokeAllEv
08048184 W _ZN20CLR_RT_ProtectFromGCC1EPPvPFvS0_E
080215c4 W _ZN20CLR_RT_ProtectFromGCC1ER16CLR_RT_HeapBlock
08048184 W _ZN20CLR_RT_ProtectFromGCC2EPPvPFvS0_E
080215c4 W _ZN20CLR_RT_ProtectFromGCC2ER16CLR_RT_HeapBlock
080215e0 W _ZN20CLR_RT_ProtectFromGCD1Ev
080215e0 W _ZN20CLR_RT_ProtectFromGCD2Ev
08020f90 W _ZN20CLR_RT_TypeDef_Index3SetEjj
08046d44 W _ZN20CLR_RT_TypeDef_Index5ClearEv
08047db8 W _ZN20CLR_RT_UnicodeHelper12SetInputUTF8EPKc
08056e10 T _ZN20CLR_RT_UnicodeHelper13ConvertToUTF8Eib
08047dd4 W _ZN20CLR_RT_UnicodeHelper13SetInputUTF16EPKt
08056ae4 T _ZN20CLR_RT_UnicodeHelper15ConvertFromUTF8Eibi
08056a24 T _ZN20CLR_RT_UnicodeHelper18CountNumberOfBytesEi
080568a8 T _ZN20CLR_RT_UnicodeHelper23CountNumberOfCharactersEi
0803b89c T _ZN20DataReceptionHandler10InitializeEhh
0803bf18 T _ZN20DataReceptionHandler11SendDataACKEv
0803bc9c T _ZN20DataReceptionHandler12ExecuteEventEv
0803c090 T _ZN20DataReceptionHandler12FailsafeStopEv
0803c04c T _ZN20DataReceptionHandler16PostExecuteEventEv
0803beb8 T _ZN20DataReceptionHandler20HandleEndofReceptionEt
0803be3c T _ZN20DataReceptionHandler20HandleRadioInterruptEv
0803bbd4 T _ZN20DataReceptionHandler32UpdateSeedandCalculateWakeupSlotERyRtRKtRKjRKy
0803ba1c T _ZN20DataReceptionHandler9NextEventEv
0803df38 T _ZN20FileSystemVolumeList10InitializeEv
0803df44 T _ZN20FileSystemVolumeList17InitializeVolumesEv
0803df54 T _ZN20FileSystemVolumeList19UninitializeVolumesEv
0803f0cc W _ZN20I2C_HAL_XACTION_UNIT10CopyBufferEPhj
0803f330 T _ZN20I2C_HAL_XACTION_UNIT10InitializeEPhS0_jj
0803f11c W _ZN20I2C_HAL_XACTION_UNIT16TransferredBytesEv
0803f134 W _ZN20I2C_HAL_XACTION_UNIT17IsReadXActionUnitEv
08040f7c T _ZN20STM32F10x_I2C_Driver10InitializeE6I2CBus
08040e9c T _ZN20STM32F10x_I2C_Driver11XActionStopEv
200024cc D _ZN20STM32F10x_I2C_Driver12GpioPinsBus1E
200024d4 D _ZN20STM32F10x_I2C_Driver12GpioPinsBus2E
08041180 T _ZN20STM32F10x_I2C_Driver12UnInitializeEv
08040dd0 T _ZN20STM32F10x_I2C_Driver12XActionStartEP15I2C_HAL_XACTIONb
20007fd0 B _ZN20STM32F10x_I2C_Driver13IsInitializedE
08040848 W _ZN20STM32F10x_I2C_Driver17getCurrentXActionEv
08040860 W _ZN20STM32F10x_I2C_Driver17setCurrentXActionEP15I2C_HAL_XACTION
0804087c W _ZN20STM32F10x_I2C_Driver21getCurrentXActionUnitEv
08040894 W _ZN20STM32F10x_I2C_Driver21setCurrentXActionUnitEP20I2C_HAL_XACTION_UNIT
200024c4 D _ZN20STM32F10x_I2C_Driver8I2CClockE
08020f58 W _ZN21CLR_RT_Assembly_Index3SetEj
08020fec W _ZN21CLR_RT_FieldDef_Index3SetEjj
08046d5c W _ZN21CLR_RT_FieldDef_Index5ClearEv
08052c0c T _ZN21CLR_RT_HeapBlock_Lock11ChangeOwnerEv
08052ba0 T _ZN21CLR_RT_HeapBlock_Lock12DestroyOwnerEP16CLR_RT_SubThread
08052ab8 T _ZN21CLR_RT_HeapBlock_Lock14CreateInstanceERPS_P13CLR_RT_ThreadR16CLR_RT_HeapBlock
08052ed8 T _ZN21CLR_RT_HeapBlock_Lock14Relocate_OwnerEv
08052e10 T _ZN21CLR_RT_HeapBlock_Lock18DecrementOwnershipEPS_P16CLR_RT_SubThread
08052d3c T _ZN21CLR_RT_HeapBlock_Lock18IncrementOwnershipEPS_P16CLR_RT_SubThreadRKxb
08052ec0 T _ZN21CLR_RT_HeapBlock_Lock8RelocateEv
08025d7c W _ZN21CLR_RT_HeapBlock_Node14RemoveFromListEv
08025d64 W _ZN21CLR_RT_HeapBlock_Node22ConsistencyCheck_NodesEPS_S0_
08047ab0 W _ZN21CLR_RT_HeapBlock_Node22GenericNode_InitializeEv
08025db8 W _ZN21CLR_RT_HeapBlock_Node6UnlinkEv
080275e0 W _ZN21CLR_RT_HeapBlock_Node7SetNextEPS_
080275fc W _ZN21CLR_RT_HeapBlock_Node7SetPrevEPS_
08052f70 T _ZN21CLR_RT_HeapBlock_Node8RelocateEv
0805ecc8 T _ZN21CLR_RT_TypeDescriptor14ConvertToArrayEv
0805ed00 T _ZN21CLR_RT_TypeDescriptor14GetElementTypeERS_
0805e8ac T _ZN21CLR_RT_TypeDescriptor18InitializeFromTypeERK20CLR_RT_TypeDef_Index
0805ea7c T _ZN21CLR_RT_TypeDescriptor20InitializeFromObjectERK16CLR_RT_HeapBlock
0805e750 T _ZN21CLR_RT_TypeDescriptor22InitializeFromDataTypeE12CLR_DataType
0805e854 T _ZN21CLR_RT_TypeDescriptor22InitializeFromTypeSpecERK21CLR_RT_TypeSpec_Index
0805ed58 T _ZN21CLR_RT_TypeDescriptor24ExtractObjectAndDataTypeERP16CLR_RT_HeapBlockR12CLR_DataType
0805e7e8 T _ZN21CLR_RT_TypeDescriptor24InitializeFromReflectionERK26CLR_RT_ReflectionDef_Index
0805edb4 T _ZN21CLR_RT_TypeDescriptor26ExtractTypeIndexFromObjectERK16CLR_RT_HeapBlockR20CLR_RT_TypeDef_Index
0805e9c0 T _ZN21CLR_RT_TypeDescriptor29InitializeFromFieldDefinitionERK24CLR_RT_FieldDef_Instance
0805e9fc T _ZN21CLR_RT_TypeDescriptor29InitializeFromSignatureParserER22CLR_RT_SignatureParser
08046ce8 W _ZN21CLR_RT_TypeSpec_Index3SetEjj
08046cd0 W _ZN21CLR_RT_TypeSpec_Index5ClearEv
0803a674 W _ZN21Hal_Queue_UnknownSizeIhE10InitializeEPhj
0803a818 W _ZN21Hal_Queue_UnknownSizeIhE16NumberOfElementsEv
0803a758 W _ZN21Hal_Queue_UnknownSizeIhE3PopERj
0803a618 W _ZN21Hal_Queue_UnknownSizeIhE3PopEv
0803a6a8 W _ZN21Hal_Queue_UnknownSizeIhE4PushERj
0803a894 W _ZN21Hal_Queue_UnknownSizeIhE4PushEv
0803a864 W _ZN21Hal_Queue_UnknownSizeIhE7IsEmptyEv
0806dcd0 W _ZN21Hal_Queue_UnknownSizeIN15CLR_HW_Hardware18HalInterruptRecordEE10InitializeEPS1_j
0806e29c W _ZN21Hal_Queue_UnknownSizeIN15CLR_HW_Hardware18HalInterruptRecordEE16NumberOfElementsEv
0806e2e8 W _ZN21Hal_Queue_UnknownSizeIN15CLR_HW_Hardware18HalInterruptRecordEE3PopEv
0806ed4c W _ZN21Hal_Queue_UnknownSizeIN15CLR_HW_Hardware18HalInterruptRecordEE4PeekEv
0806e34c W _ZN21Hal_Queue_UnknownSizeIN15CLR_HW_Hardware18HalInterruptRecordEE4PushEv
0806ed8c W _ZN21Hal_Queue_UnknownSizeIN15CLR_HW_Hardware18HalInterruptRecordEE7IsEmptyEv
080297c8 W _ZN21IEEE802_15_4_Metadata10SetNetworkEh
0803c0a4 W _ZN21IEEE802_15_4_Metadata16GetRetryAttemptsEv
0803c0bc W _ZN21IEEE802_15_4_Metadata16SetRetryAttemptsEh
080297e4 W _ZN21IEEE802_15_4_Metadata19GetReceiveTimeStampEv
08029828 W _ZN21IEEE802_15_4_Metadata19SetReceiveTimeStampEj
08031eb0 W _ZN21IEEE802_15_4_Metadata19SetReceiveTimeStampEx
0802c7b4 W _ZN21IEEE802_15_4_Metadata6GetLqiEv
0803234c W _ZN21IEEE802_15_4_Metadata6SetLqiEh
0802c79c W _ZN21IEEE802_15_4_Metadata7GetRssiEv
08032330 W _ZN21IEEE802_15_4_Metadata7SetRssiEh
0803033c W _ZN21IEEE802_15_4_Metadata9ClearDataEv
0806eddc T _ZN22CLR_RT_BinaryFormatter11DeserializeER16CLR_RT_HeapBlockS1_PS0_Pjj
0806edbc T _ZN22CLR_RT_BinaryFormatter9SerializeER16CLR_RT_HeapBlockS1_PS0_j
0804bc60 T _ZN22CLR_RT_ExecutionEngine10CastToTypeER16CLR_RT_HeapBlockjP15CLR_RT_Assemblyb
0804b76c T _ZN22CLR_RT_ExecutionEngine10LockObjectER16CLR_RT_HeapBlockP16CLR_RT_SubThreadRKxb
0804989c T _ZN22CLR_RT_ExecutionEngine10SpawnTimerEv
0804cbbc T _ZN22CLR_RT_ExecutionEngine10UpdateTimeEv
0804b830 T _ZN22CLR_RT_ExecutionEngine10WaitEventsEP13CLR_RT_ThreadRKxjRb
0804b484 T _ZN22CLR_RT_ExecutionEngine11CheckTimersERx
0804aea8 T _ZN22CLR_RT_ExecutionEngine11CloneObjectER16CLR_RT_HeapBlockRKS0_
0804bd38 T _ZN22CLR_RT_ExecutionEngine11InitTimeoutERxi
0804bccc T _ZN22CLR_RT_ExecutionEngine11InitTimeoutERxRKx
0804b530 T _ZN22CLR_RT_ExecutionEngine12CheckThreadsERxR20CLR_RT_DblLinkedList
0804be00 T _ZN22CLR_RT_ExecutionEngine12DebuggerLoopEv
0804bbac T _ZN22CLR_RT_ExecutionEngine12IsInstanceOfER16CLR_RT_HeapBlockP15CLR_RT_Assemblyj
0804bb54 T _ZN22CLR_RT_ExecutionEngine12IsInstanceOfER16CLR_RT_HeapBlockRK20CLR_RT_TypeDef_Index
0804b96c T _ZN22CLR_RT_ExecutionEngine12IsInstanceOfER21CLR_RT_TypeDescriptorS1_
0804bafc T _ZN22CLR_RT_ExecutionEngine12IsInstanceOfERK20CLR_RT_TypeDef_IndexS2_
0804b2d0 T _ZN22CLR_RT_ExecutionEngine12ProcessTimerEv
0804b93c T _ZN22CLR_RT_ExecutionEngine12SignalEventsEj
0804b8c0 T _ZN22CLR_RT_ExecutionEngine12SignalEventsER20CLR_RT_DblLinkedListj
0804b7cc T _ZN22CLR_RT_ExecutionEngine12UnlockObjectER16CLR_RT_HeapBlockP16CLR_RT_SubThread
08048fb0 T _ZN22CLR_RT_ExecutionEngine13AllocateHeapsEv
0804afac T _ZN22CLR_RT_ExecutionEngine13CopyValueTypeEP16CLR_RT_HeapBlockPKS0_
0804b408 T _ZN22CLR_RT_ExecutionEngine13IsTimeExpiredERKxRxb
08049184 T _ZN22CLR_RT_ExecutionEngine13StartHardwareEv
08048dc0 T _ZN22CLR_RT_ExecutionEngine14CreateInstanceEv
0804907c T _ZN22CLR_RT_ExecutionEngine14DeleteInstanceEv
0804b110 T _ZN22CLR_RT_ExecutionEngine14FindLockObjectER16CLR_RT_HeapBlock
0804b06c T _ZN22CLR_RT_ExecutionEngine14FindLockObjectER20CLR_RT_DblLinkedListR16CLR_RT_HeapBlock
200089f0 B _ZN22CLR_RT_ExecutionEngine14s_compensationE
08049bfc T _ZN22CLR_RT_ExecutionEngine14SpawnFinalizerEv
0804a290 T _ZN22CLR_RT_ExecutionEngine15AbortAllThreadsER20CLR_RT_DblLinkedList
0804a454 T _ZN22CLR_RT_ExecutionEngine15GetNextThreadIdEv
0804b2b0 T _ZN22CLR_RT_ExecutionEngine15ProcessHardwareEv
0804a200 T _ZN22CLR_RT_ExecutionEngine15PutInProperListEP13CLR_RT_Thread
08049e88 T _ZN22CLR_RT_ExecutionEngine15ScheduleThreadsEi
0804cb04 T _ZN22CLR_RT_ExecutionEngine15UnloadAppDomainEP16CLR_RT_AppDomainP13CLR_RT_Thread
0804a1cc T _ZN22CLR_RT_ExecutionEngine15WaitForActivityEjjx
0804a0f0 T _ZN22CLR_RT_ExecutionEngine15WaitForActivityEv
08049588 T _ZN22CLR_RT_ExecutionEngine15WaitForDebuggerEv
0804a984 T _ZN22CLR_RT_ExecutionEngine16InitializeLocalsEP16CLR_RT_HeapBlockP15CLR_RT_AssemblyPK20CLR_RECORD_METHODDEF
0804bf50 T _ZN22CLR_RT_ExecutionEngine16StopOnBreakpointERN16CLR_DBG_Commands33Debugging_Execution_BreakpointDefEP13CLR_RT_Thread
0804c038 T _ZN22CLR_RT_ExecutionEngine16StopOnBreakpointERN16CLR_DBG_Commands33Debugging_Execution_BreakpointDefEP17CLR_RT_StackFramePKh
0804cc64 T _ZN22CLR_RT_ExecutionEngine16WaitSystemEventsEjjx
0804a804 T _ZN22CLR_RT_ExecutionEngine17AccessStaticFieldERK21CLR_RT_FieldDef_Index
0804a690 T _ZN22CLR_RT_ExecutionEngine17ExtractHeapBlocksER20CLR_RT_DblLinkedListjjj
0804a2e4 T _ZN22CLR_RT_ExecutionEngine17ReleaseAllThreadsER20CLR_RT_DblLinkedList
0804b190 T _ZN22CLR_RT_ExecutionEngine18DeleteLockRequestsEP13CLR_RT_ThreadP16CLR_RT_SubThread
0804b1e0 T _ZN22CLR_RT_ExecutionEngine18DeleteLockRequestsEP13CLR_RT_ThreadP16CLR_RT_SubThreadR20CLR_RT_DblLinkedList
08049854 T _ZN22CLR_RT_ExecutionEngine18EnsureSystemThreadERP13CLR_RT_Threadi
0804beb4 T _ZN22CLR_RT_ExecutionEngine18InstallBreakpointsEPN16CLR_DBG_Commands33Debugging_Execution_BreakpointDefEj
0804ac14 T _ZN22CLR_RT_ExecutionEngine18NewObjectFromIndexER16CLR_RT_HeapBlockRK20CLR_RT_TypeDef_Index
0804ca08 T _ZN22CLR_RT_ExecutionEngine19GetCurrentAppDomainEv
0804a94c T _ZN22CLR_RT_ExecutionEngine19InitializeReferenceER16CLR_RT_HeapBlockPK19CLR_RECORD_FIELDDEFP15CLR_RT_Assembly
0804a880 T _ZN22CLR_RT_ExecutionEngine19InitializeReferenceER16CLR_RT_HeapBlockR22CLR_RT_SignatureParser
0804c9e0 T _ZN22CLR_RT_ExecutionEngine19SetCurrentAppDomainEP16CLR_RT_AppDomain
0804c924 T _ZN22CLR_RT_ExecutionEngine20Breakpoint_ExceptionEP17CLR_RT_StackFramejPKh
0804b3ec T _ZN22CLR_RT_ExecutionEngine20InvalidateTimerCacheEv
080492e8 T _ZN22CLR_RT_ExecutionEngine21PerformHeapCompactionEv
08049d70 T _ZN22CLR_RT_ExecutionEngine21RetrieveCurrentMethodERjS0_
0804946c T _ZN22CLR_RT_ExecutionEngine21TryToUnloadAppDomainsEv
08049cf0 T _ZN22CLR_RT_ExecutionEngine22AdjustExecutionCounterER20CLR_RT_DblLinkedListi
0804a30c T _ZN22CLR_RT_ExecutionEngine22InsertThreadRoundRobinER20CLR_RT_DblLinkedListP13CLR_RT_Thread
08049a44 T _ZN22CLR_RT_ExecutionEngine22SpawnStaticConstructorERP13CLR_RT_Thread
0804c128 T _ZN22CLR_RT_ExecutionEngine23Breakpoint_System_EventERN16CLR_DBG_Commands33Debugging_Execution_BreakpointDefEtP13CLR_RT_ThreadP17CLR_RT_StackFramePKh
0804c09c T _ZN22CLR_RT_ExecutionEngine23DequeueActiveBreakpointERN16CLR_DBG_Commands33Debugging_Execution_BreakpointDefE
0804909c T _ZN22CLR_RT_ExecutionEngine23ExecutionEngine_CleanupEv
08049280 T _ZN22CLR_RT_ExecutionEngine24PerformGarbageCollectionEv
0804c624 T _ZN22CLR_RT_ExecutionEngine25Breakpoint_StackFrame_PopEP17CLR_RT_StackFrameb
0804c47c T _ZN22CLR_RT_ExecutionEngine25Breakpoint_Thread_CreatedEP13CLR_RT_Thread
0804a47c T _ZN22CLR_RT_ExecutionEngine25ExtractHeapBlocksForArrayER23CLR_RT_TypeDef_InstancejRK26CLR_RT_ReflectionDef_Index
0804c828 T _ZN22CLR_RT_ExecutionEngine26Breakpoint_StackFrame_HardEP17CLR_RT_StackFramePKh
0804c4b4 T _ZN22CLR_RT_ExecutionEngine26Breakpoint_StackFrame_PushEP17CLR_RT_StackFramej
0804c744 T _ZN22CLR_RT_ExecutionEngine26Breakpoint_StackFrame_StepEP17CLR_RT_StackFramePKh
0804c250 T _ZN22CLR_RT_ExecutionEngine26Breakpoint_Threads_PrepareER20CLR_RT_DblLinkedList
0804926c T _ZN22CLR_RT_ExecutionEngine26ExecutionConstraint_ResumeEv
08048e00 T _ZN22CLR_RT_ExecutionEngine26ExecutionEngine_InitializeEv
0804a640 T _ZN22CLR_RT_ExecutionEngine26ExtractHeapBlocksForEventsEjjj
0804a5ac T _ZN22CLR_RT_ExecutionEngine26ExtractHeapBytesForObjectsEjjj
0804c8ec T _ZN22CLR_RT_ExecutionEngine27Breakpoint_StackFrame_BreakEP17CLR_RT_StackFrame
08049258 T _ZN22CLR_RT_ExecutionEngine27ExecutionConstraint_SuspendEv
0804a5e4 T _ZN22CLR_RT_ExecutionEngine27ExtractHeapBlocksForObjectsEjjj
0804be40 T _ZN22CLR_RT_ExecutionEngine27SetDebuggingInfoBreakpointsEb
0804c1dc T _ZN22CLR_RT_ExecutionEngine28Breakpoint_Assemblies_LoadedEv
0804c42c T _ZN22CLR_RT_ExecutionEngine28Breakpoint_Thread_TerminatedEP13CLR_RT_Thread
08049be0 T _ZN22CLR_RT_ExecutionEngine28FinalizerTerminationCallbackEPv
0804993c T _ZN22CLR_RT_ExecutionEngine28SpawnStaticConstructorHelperEP16CLR_RT_AppDomainP24CLR_RT_AppDomainAssemblyRK22CLR_RT_MethodDef_Index
0804c960 T _ZN22CLR_RT_ExecutionEngine29Breakpoint_Exception_UncaughtEP13CLR_RT_Thread
08048468 W _ZN22CLR_RT_ExecutionEngine31ExecutionConstraintCompensation6ResumeEv
08048434 W _ZN22CLR_RT_ExecutionEngine31ExecutionConstraintCompensation7SuspendEv
0804c9a0 T _ZN22CLR_RT_ExecutionEngine32Breakpoint_Exception_InterceptedEP17CLR_RT_StackFrame
0804ca24 T _ZN22CLR_RT_ExecutionEngine32PrepareThreadsForAppDomainUnloadEP16CLR_RT_AppDomainR20CLR_RT_DblLinkedList
08049918 T _ZN22CLR_RT_ExecutionEngine36StaticConstructorTerminationCallbackEPv
08049380 T _ZN22CLR_RT_ExecutionEngine36TryToUnloadAppDomains_Helper_ThreadsER20CLR_RT_DblLinkedList
0804a548 T _ZN22CLR_RT_ExecutionEngine37ExtractHeapBlocksForClassOrValueTypesEjjRK20CLR_RT_TypeDef_Indexj
080493fc T _ZN22CLR_RT_ExecutionEngine39TryToUnloadAppDomains_Helper_FinalizersER20CLR_RT_DblLinkedListb
0804b7f8 T _ZN22CLR_RT_ExecutionEngine5SleepEP13CLR_RT_ThreadRKx
080491a8 T _ZN22CLR_RT_ExecutionEngine6RebootEb
080495e4 T _ZN22CLR_RT_ExecutionEngine7ExecuteEPwi
08049340 T _ZN22CLR_RT_ExecutionEngine8RelocateEv
08049234 T _ZN22CLR_RT_ExecutionEngine9GetUptimeEv
0804ac5c T _ZN22CLR_RT_ExecutionEngine9NewObjectER16CLR_RT_HeapBlockRK23CLR_RT_TypeDef_Instance
0804a3d0 T _ZN22CLR_RT_ExecutionEngine9NewThreadERP13CLR_RT_ThreadP25CLR_RT_HeapBlock_Delegateiij
08051820 T _ZN22CLR_RT_HeapBlock_Array10CheckRangeEiii
080214e8 W _ZN22CLR_RT_HeapBlock_Array10GetElementEj
08051720 T _ZN22CLR_RT_HeapBlock_Array13ClearElementsEii
08051678 T _ZN22CLR_RT_HeapBlock_Array14CreateInstanceER16CLR_RT_HeapBlockjP15CLR_RT_Assemblyj
08051640 T _ZN22CLR_RT_HeapBlock_Array14CreateInstanceER16CLR_RT_HeapBlockjRK20CLR_RT_TypeDef_Index
08051554 T _ZN22CLR_RT_HeapBlock_Array14CreateInstanceER16CLR_RT_HeapBlockjRK26CLR_RT_ReflectionDef_Index
080214d0 W _ZN22CLR_RT_HeapBlock_Array15GetFirstElementEv
08051a08 T _ZN22CLR_RT_HeapBlock_Array4CopyEPS_iS0_ii
08051870 T _ZN22CLR_RT_HeapBlock_Array7IndexOfEPS_R16CLR_RT_HeapBlockiibRi
080517f4 T _ZN22CLR_RT_HeapBlock_Array8RelocateEv
08053228 T _ZN22CLR_RT_HeapBlock_Queue14ObjArrayMemcpyEP22CLR_RT_HeapBlock_ArrayiS1_ii
08047c94 W _ZN22CLR_RT_HeapBlock_Queue4HeadEv
08053120 T _ZN22CLR_RT_HeapBlock_Queue4PeekERP16CLR_RT_HeapBlock
0805317c T _ZN22CLR_RT_HeapBlock_Queue5ClearEv
08053270 T _ZN22CLR_RT_HeapBlock_Queue6CopyToEP22CLR_RT_HeapBlock_Arrayi
08052f94 T _ZN22CLR_RT_HeapBlock_Queue7DequeueERP16CLR_RT_HeapBlock
0805301c T _ZN22CLR_RT_HeapBlock_Queue7EnqueueEP16CLR_RT_HeapBlock
08047c58 W _ZN22CLR_RT_HeapBlock_Queue7GetSizeEv
08047cb4 W _ZN22CLR_RT_HeapBlock_Queue7GetTailEv
08047cf0 W _ZN22CLR_RT_HeapBlock_Queue7SetHeadEi
08047d28 W _ZN22CLR_RT_HeapBlock_Queue7SetSizeEi
08047d0c W _ZN22CLR_RT_HeapBlock_Queue7SetTailEi
08047c78 W _ZN22CLR_RT_HeapBlock_Queue8GetArrayEv
08047cd4 W _ZN22CLR_RT_HeapBlock_Queue8SetArrayEP22CLR_RT_HeapBlock_Array
08053344 T _ZN22CLR_RT_HeapBlock_Stack3PopERP16CLR_RT_HeapBlock
080534a0 T _ZN22CLR_RT_HeapBlock_Stack4PeekERP16CLR_RT_HeapBlock
080533ac T _ZN22CLR_RT_HeapBlock_Stack4PushEP16CLR_RT_HeapBlock
080534f4 T _ZN22CLR_RT_HeapBlock_Stack5ClearEv
08047d44 W _ZN22CLR_RT_HeapBlock_Stack7GetSizeEv
08047d9c W _ZN22CLR_RT_HeapBlock_Stack7SetSizeEi
08047d64 W _ZN22CLR_RT_HeapBlock_Stack8GetArrayEv
08047d80 W _ZN22CLR_RT_HeapBlock_Stack8SetArrayEP22CLR_RT_HeapBlock_Array
08053a28 T _ZN22CLR_RT_HeapBlock_Timer10RescheduleEv
080538a0 T _ZN22CLR_RT_HeapBlock_Timer10SpawnTimerEP13CLR_RT_Thread
08053bdc T _ZN22CLR_RT_HeapBlock_Timer13CheckDisposedER17CLR_RT_StackFrame
08053844 T _ZN22CLR_RT_HeapBlock_Timer13RecoverFromGCEv
08053730 T _ZN22CLR_RT_HeapBlock_Timer14CreateInstanceEjR16CLR_RT_HeapBlockS1_
08053c24 T _ZN22CLR_RT_HeapBlock_Timer15ConfigureObjectER17CLR_RT_StackFramej
0805380c T _ZN22CLR_RT_HeapBlock_Timer15ExtractInstanceER16CLR_RT_HeapBlockRPS_
08053ae0 T _ZN22CLR_RT_HeapBlock_Timer21AdjustNextFixedExpireERK10SYSTEMTIMEb
080539f8 T _ZN22CLR_RT_HeapBlock_Timer25ThreadTerminationCallbackEPv
08053864 T _ZN22CLR_RT_HeapBlock_Timer7TriggerEv
08021060 W _ZN22CLR_RT_MethodDef_Index3SetEjj
08021048 W _ZN22CLR_RT_MethodDef_Index5ClearEv
0805dbc8 T _ZN22CLR_RT_SignatureParser18Initialize_ObjectsEP16CLR_RT_HeapBlockib
0805dab0 T _ZN22CLR_RT_SignatureParser19Initialize_FieldDefEP15CLR_RT_AssemblyPK19CLR_RECORD_FIELDDEF
0805dadc T _ZN22CLR_RT_SignatureParser19Initialize_FieldDefEP15CLR_RT_AssemblyPKh
0805d9f0 T _ZN22CLR_RT_SignatureParser19Initialize_TypeSpecEP15CLR_RT_AssemblyPK19CLR_RECORD_TYPESPEC
0805da1c T _ZN22CLR_RT_SignatureParser19Initialize_TypeSpecEP15CLR_RT_AssemblyPKh
0805da50 T _ZN22CLR_RT_SignatureParser21Initialize_InterfacesEP15CLR_RT_AssemblyPK18CLR_RECORD_TYPEDEF
0805db88 T _ZN22CLR_RT_SignatureParser23Initialize_MethodLocalsEP15CLR_RT_AssemblyPK20CLR_RECORD_METHODDEF
0805db18 T _ZN22CLR_RT_SignatureParser26Initialize_MethodSignatureEP15CLR_RT_AssemblyPK20CLR_RECORD_METHODDEF
0805db44 T _ZN22CLR_RT_SignatureParser26Initialize_MethodSignatureEP15CLR_RT_AssemblyPKh
0805dc04 T _ZN22CLR_RT_SignatureParser7AdvanceERNS_7ElementE
0803fd40 T _ZN22STM32F10x_blDriver_nor10EraseBlockEPvj
0803fba8 T _ZN22STM32F10x_blDriver_nor13GetDeviceInfoEPv
0803fd00 T _ZN22STM32F10x_blDriver_nor13IsBlockErasedEPvjj
0803fd84 T _ZN22STM32F10x_blDriver_nor13SetPowerStateEPvj
0803fb74 T _ZN22STM32F10x_blDriver_nor16InitializeDeviceEPv
0803fcc8 T _ZN22STM32F10x_blDriver_nor17GetSectorMetadataEPvjP14SectorMetadata
0803fce4 T _ZN22STM32F10x_blDriver_nor17SetSectorMetadataEPvjP14SectorMetadata
0803fdb8 T _ZN22STM32F10x_blDriver_nor18MaxBlockErase_uSecEPv
0803fb90 T _ZN22STM32F10x_blDriver_nor18UninitializeDeviceEPv
0803fd98 T _ZN22STM32F10x_blDriver_nor19MaxSectorWrite_uSecEPv
0803fbc4 T _ZN22STM32F10x_blDriver_nor4ReadEPvjjPh
0803fc00 T _ZN22STM32F10x_blDriver_nor5WriteEPvjjPhj
0803fc58 T _ZN22STM32F10x_blDriver_nor6MemsetEPvjhj
0805f01c T _ZN23CLR_RT_ExceptionHandler13ConvertFromEHERK25CLR_RT_MethodDef_InstancePKhPK13CLR_RECORD_EH
0804d9a4 T _ZN23CLR_RT_GarbageCollector11Thread_MarkEP13CLR_RT_Thread
0804db30 T _ZN23CLR_RT_GarbageCollector11Thread_MarkER20CLR_RT_DblLinkedList
0804dd90 T _ZN23CLR_RT_GarbageCollector12Heap_CompactEv
080481cc W _ZN23CLR_RT_GarbageCollector12ValidateHeapER20CLR_RT_DblLinkedList
0804d948 T _ZN23CLR_RT_GarbageCollector13Assembly_MarkEv
0804e4ac T _ZN23CLR_RT_GarbageCollector13Heap_RelocateEP16CLR_RT_HeapBlockj
0804e554 T _ZN23CLR_RT_GarbageCollector13Heap_RelocateEPPv
0804e324 T _ZN23CLR_RT_GarbageCollector13Heap_RelocateEv
0804d8a8 T _ZN23CLR_RT_GarbageCollector14AppDomain_MarkEv
080481b8 W _ZN23CLR_RT_GarbageCollector15ValidateClusterEP18CLR_RT_HeapCluster
0804821c W _ZN23CLR_RT_GarbageCollector16CheckSingleBlockEPP16CLR_RT_HeapBlock
08048238 W _ZN23CLR_RT_GarbageCollector16CheckSingleBlockEPP22CLR_RT_HeapBlock_Array
08048254 W _ZN23CLR_RT_GarbageCollector16CheckSingleBlockEPP25CLR_RT_HeapBlock_Delegate
080481a4 W _ZN23CLR_RT_GarbageCollector16ValidatePointersEv
0804dd4c T _ZN23CLR_RT_GarbageCollector17ExecuteCompactionEv
0804e3b4 T _ZN23CLR_RT_GarbageCollector18Heap_Relocate_PassEPFbPPvE
080481f4 W _ZN23CLR_RT_GarbageCollector18TestPointers_RemapEv
0804d6b8 T _ZN23CLR_RT_GarbageCollector19CheckMemoryPressureEv
08048298 W _ZN23CLR_RT_GarbageCollector19CheckMultipleBlocksEP16CLR_RT_HeapBlockj
0804db70 T _ZN23CLR_RT_GarbageCollector19RecoverEventsFromGCEv
0804e2fc T _ZN23CLR_RT_GarbageCollector21Heap_Relocate_PrepareEPNS_16RelocationRegionEj
08048270 W _ZN23CLR_RT_GarbageCollector22CheckSingleBlock_ForceEP16CLR_RT_HeapBlock
0804ce28 T _ZN23CLR_RT_GarbageCollector24ExecuteGarbageCollectionEv
08048208 W _ZN23CLR_RT_GarbageCollector24TestPointers_PopulateNewEv
080481e0 W _ZN23CLR_RT_GarbageCollector24TestPointers_PopulateOldEv
0804dc94 T _ZN23CLR_RT_GarbageCollector28Heap_ComputeAliveVsDeadRatioEv
0804e638 T _ZN23CLR_RT_GarbageCollector38ComputeReachabilityGraphForSingleBlockEPP16CLR_RT_HeapBlock
0804e678 T _ZN23CLR_RT_GarbageCollector41ComputeReachabilityGraphForMultipleBlocksEP16CLR_RT_HeapBlockj
0804d20c T _ZN23CLR_RT_GarbageCollector4MarkEv
0804d5cc T _ZN23CLR_RT_GarbageCollector5SweepEv
0804d158 T _ZN23CLR_RT_GarbageCollector8MarkSlowEv
0804d4c0 T _ZN23CLR_RT_GarbageCollector8MarkWeakEv
0804e5f8 T _ZN23CLR_RT_GarbageCollector9MarkStack10InitializeEPNS_16MarkStackElementEj
08053544 T _ZN23CLR_RT_HeapBlock_String14CreateInstanceER16CLR_RT_HeapBlockj
08053688 T _ZN23CLR_RT_HeapBlock_String14CreateInstanceER16CLR_RT_HeapBlockjP15CLR_RT_Assembly
080535a4 T _ZN23CLR_RT_HeapBlock_String14CreateInstanceER16CLR_RT_HeapBlockPKc
080535e0 T _ZN23CLR_RT_HeapBlock_String14CreateInstanceER16CLR_RT_HeapBlockPKcj
08053630 T _ZN23CLR_RT_HeapBlock_String14CreateInstanceER16CLR_RT_HeapBlockPKcP15CLR_RT_Assembly
080536bc T _ZN23CLR_RT_HeapBlock_String14CreateInstanceER16CLR_RT_HeapBlockPtj
0805e350 T _ZN23CLR_RT_TypeDef_Instance12ResolveTokenEjP15CLR_RT_Assembly
0805e404 T _ZN23CLR_RT_TypeDef_Instance14SwitchToParentEv
0805e214 T _ZN23CLR_RT_TypeDef_Instance19InitializeFromFieldERK24CLR_RT_FieldDef_Instance
0805e124 T _ZN23CLR_RT_TypeDef_Instance19InitializeFromIndexERK20CLR_RT_TypeDef_Index
0805e198 T _ZN23CLR_RT_TypeDef_Instance20InitializeFromMethodERK25CLR_RT_MethodDef_Instance
0805e090 T _ZN23CLR_RT_TypeDef_Instance24InitializeFromReflectionERK26CLR_RT_ReflectionDef_IndexPj
0805e32c T _ZN23CLR_RT_TypeDef_Instance5ClearEv
0803c8d4 T _ZN23DataTransmissionHandler10DropPacketEv
0803c1b0 T _ZN23DataTransmissionHandler10InitializeEv
0803cc70 T _ZN23DataTransmissionHandler12ExecuteEventEv
0803ced8 T _ZN23DataTransmissionHandler12FailsafeStopEv
0803cd00 T _ZN23DataTransmissionHandler14SendACKHandlerEP7MessageI19IEEE802_15_4_HeaderLt95E19IEEE802_15_4_Footer21IEEE802_15_4_MetadataEh
0803ceac T _ZN23DataTransmissionHandler16PostExecuteEventEv
0803c2e8 T _ZN23DataTransmissionHandler18CalculateNextRXOppEt
0803ca40 T _ZN23DataTransmissionHandler18ExecuteEventHelperEv
0803d020 T _ZN23DataTransmissionHandler25UpdateNeighborsWakeUpSlotEth
0803ceec T _ZN23DataTransmissionHandler4SendEv
0803c5cc T _ZN23DataTransmissionHandler9NextEventEv
0803c9f0 T _ZN23DataTransmissionHandler9SendRetryEv
0802d9bc T _ZN23STM32F10x_AdvancedTimer10GetCounterEv
0802dac4 T _ZN23STM32F10x_AdvancedTimer10InitializeEjPFvPvEj
0802dce0 T _ZN23STM32F10x_AdvancedTimer10SetCompareEy
0802de68 T _ZN23STM32F10x_AdvancedTimer11GetMaxTicksEv
200033a0 B _ZN23STM32F10x_AdvancedTimer11initializedE
0802da28 T _ZN23STM32F10x_AdvancedTimer12Get64CounterEv
08060a94 T _ZN24CLR_RT_AppDomainAssembly14CreateInstanceEP16CLR_RT_AppDomainP15CLR_RT_AssemblyRPS_
08060be4 T _ZN24CLR_RT_AppDomainAssembly15DestroyInstanceEv
08060b28 T _ZN24CLR_RT_AppDomainAssembly28AppDomainAssembly_InitializeEP16CLR_RT_AppDomainP15CLR_RT_Assembly
08060c0c T _ZN24CLR_RT_AppDomainAssembly8RelocateEv
0805df20 T _ZN24CLR_RT_Assembly_Instance19InitializeFromIndexERK21CLR_RT_Assembly_Index
0805e548 T _ZN24CLR_RT_FieldDef_Instance12ResolveTokenEjP15CLR_RT_Assembly
0805e4b0 T _ZN24CLR_RT_FieldDef_Instance19InitializeFromIndexERK21CLR_RT_FieldDef_Index
0805e524 T _ZN24CLR_RT_FieldDef_Instance5ClearEv
0805e018 T _ZN24CLR_RT_TypeSpec_Instance12ResolveTokenEjP15CLR_RT_Assembly
0805df70 T _ZN24CLR_RT_TypeSpec_Instance19InitializeFromIndexERK21CLR_RT_TypeSpec_Index
0805dff4 T _ZN24CLR_RT_TypeSpec_Instance5ClearEv
0803a9e8 T _ZN24VirtTimerHelperFunctions12AssignMapperEjRh
0803aa34 T _ZN24VirtTimerHelperFunctions23HardwareVirtTimerMapperEhRh
08046264 T _ZN24VirtTimerHelperFunctions23HardwareVirtTimerMapperEjRh
080523dc T _ZN25CLR_RT_HeapBlock_Delegate14CreateInstanceER16CLR_RT_HeapBlockRK22CLR_RT_MethodDef_IndexP17CLR_RT_StackFrame
0805246c T _ZN25CLR_RT_HeapBlock_Delegate8RelocateEv
08027b38 T _ZN25CLR_RT_HeapBlock_EndPoint12FindEndPointERKNS_4PortE
08027b2c T _ZN25CLR_RT_HeapBlock_EndPoint21HandlerMethod_CleanUpEv
08027b14 T _ZN25CLR_RT_HeapBlock_EndPoint24HandlerMethod_InitializeEv
08027b20 T _ZN25CLR_RT_HeapBlock_EndPoint27HandlerMethod_RecoverFromGCEv
0805e698 T _ZN25CLR_RT_MethodDef_Instance12ResolveTokenEjP15CLR_RT_Assembly
0805e600 T _ZN25CLR_RT_MethodDef_Instance19InitializeFromIndexERK22CLR_RT_MethodDef_Index
0805e674 T _ZN25CLR_RT_MethodDef_Instance5ClearEv
080521d8 T _ZN26CLR_RT_HeapBlock_ArrayList11SetCapacityEi
08052288 T _ZN26CLR_RT_HeapBlock_ArrayList14EnsureCapacityEii
08051f2c T _ZN26CLR_RT_HeapBlock_ArrayList3AddEP16CLR_RT_HeapBlockRi
08051fe0 T _ZN26CLR_RT_HeapBlock_ArrayList5ClearEv
08052028 T _ZN26CLR_RT_HeapBlock_ArrayList6InsertEiP16CLR_RT_HeapBlock
08051e70 T _ZN26CLR_RT_HeapBlock_ArrayList7GetItemEiRP16CLR_RT_HeapBlock
08047be4 W _ZN26CLR_RT_HeapBlock_ArrayList7GetSizeEv
08051ed0 T _ZN26CLR_RT_HeapBlock_ArrayList7SetItemEiP16CLR_RT_HeapBlock
08047c3c W _ZN26CLR_RT_HeapBlock_ArrayList7SetSizeEi
08047c04 W _ZN26CLR_RT_HeapBlock_ArrayList8GetItemsEv
08052130 T _ZN26CLR_RT_HeapBlock_ArrayList8RemoveAtEi
08047c20 W _ZN26CLR_RT_HeapBlock_ArrayList8SetItemsEP22CLR_RT_HeapBlock_Array
08052910 T _ZN26CLR_RT_HeapBlock_Finalizer14CreateInstanceEP16CLR_RT_HeapBlockRK23CLR_RT_TypeDef_Instance
08052a64 T _ZN26CLR_RT_HeapBlock_Finalizer14RemoveInstanceEP16CLR_RT_HeapBlockR20CLR_RT_DblLinkedList
08052a38 T _ZN26CLR_RT_HeapBlock_Finalizer16SuppressFinalizeEP16CLR_RT_HeapBlock
08052a20 T _ZN26CLR_RT_HeapBlock_Finalizer8RelocateEv
0802762c T _ZN26CLR_RT_Persistence_Manager10InitializeEv
08027618 T _ZN26CLR_RT_Persistence_Manager12UninitializeEv
08027640 T _ZN26CLR_RT_Persistence_Manager15InvalidateEntryEP30CLR_RT_HeapBlock_WeakReference
08027668 T _ZN26CLR_RT_Persistence_Manager5FlushEv
08027654 T _ZN26CLR_RT_Persistence_Manager8RelocateEv
0805d854 T _ZN26CLR_RT_ReflectionDef_Index18InitializeFromHashEj
0805d8bc T _ZN26CLR_RT_ReflectionDef_Index7ConvertER16CLR_RT_HeapBlockR23CLR_RT_TypeDef_InstancePj
0805d87c T _ZN26CLR_RT_ReflectionDef_Index7ConvertER16CLR_RT_HeapBlockR24CLR_RT_Assembly_Instance
0805d950 T _ZN26CLR_RT_ReflectionDef_Index7ConvertER16CLR_RT_HeapBlockR24CLR_RT_FieldDef_Instance
0805d900 T _ZN26CLR_RT_ReflectionDef_Index7ConvertER16CLR_RT_HeapBlockR25CLR_RT_MethodDef_Instance
0805d9a0 T _ZN26CLR_RT_ReflectionDef_Index7ConvertER16CLR_RT_HeapBlockRj
080522d4 T _ZN27CLR_RT_HeapBlock_BinaryBlob14CreateInstanceER16CLR_RT_HeapBlockjPFvPS_ES4_j
08047bb4 W _ZN27CLR_RT_HeapBlock_BinaryBlob7GetBlobEPv
08047b9c W _ZN27CLR_RT_HeapBlock_BinaryBlob7GetDataEv
08052384 T _ZN27CLR_RT_HeapBlock_BinaryBlob7ReleaseEb
08052324 T _ZN27CLR_RT_HeapBlock_BinaryBlob8AllocateEjj
080523b8 T _ZN27CLR_RT_HeapBlock_BinaryBlob8RelocateEv
0806e770 T _ZN27CLR_RT_HeapBlock_I2CXAction10CopyBufferEPhjj
20008a3c B _ZN27CLR_RT_HeapBlock_I2CXAction10m_i2cPortsE
0806e9b4 T _ZN27CLR_RT_HeapBlock_I2CXAction11IsCompletedEv
0806e980 T _ZN27CLR_RT_HeapBlock_I2CXAction12IsTerminatedEv
0806ea68 T _ZN27CLR_RT_HeapBlock_I2CXAction13RecoverFromGCEv
0806e440 T _ZN27CLR_RT_HeapBlock_I2CXAction14CreateInstanceER16CLR_RT_HeapBlockS1_
0806e638 T _ZN27CLR_RT_HeapBlock_I2CXAction14PrepareXActionER22I2C_USER_CONFIGURATIONj
0806e7d0 T _ZN27CLR_RT_HeapBlock_I2CXAction14ReleaseBuffersEv
0806e540 T _ZN27CLR_RT_HeapBlock_I2CXAction15AllocateXActionEj
0806e508 T _ZN27CLR_RT_HeapBlock_I2CXAction15ExtractInstanceER16CLR_RT_HeapBlockRPS_
0806ea24 T _ZN27CLR_RT_HeapBlock_I2CXAction15TransactedBytesEv
0806e9e8 T _ZN27CLR_RT_HeapBlock_I2CXAction17IsReadXActionUnitEj
0806ea84 T _ZN27CLR_RT_HeapBlock_I2CXAction17ReleaseWhenDeadExEv
0806e69c T _ZN27CLR_RT_HeapBlock_I2CXAction18PrepareXActionUnitEPhjjb
0806e404 T _ZN27CLR_RT_HeapBlock_I2CXAction21HandlerMethod_CleanUpEv
0806e3b0 T _ZN27CLR_RT_HeapBlock_I2CXAction24HandlerMethod_InitializeEv
0806e3c4 T _ZN27CLR_RT_HeapBlock_I2CXAction27HandlerMethod_RecoverFromGCEv
0806e924 T _ZN27CLR_RT_HeapBlock_I2CXAction6CancelEb
0806e8c4 T _ZN27CLR_RT_HeapBlock_I2CXAction7EnqueueEv
0806e94c T _ZN27CLR_RT_HeapBlock_I2CXAction9IsPendingEv
08055034 T _ZN27CLR_RT_ObjectToEvent_Source14CreateInstanceEP32CLR_RT_ObjectToEvent_DestinationR16CLR_RT_HeapBlockS3_
080550a8 T _ZN27CLR_RT_ObjectToEvent_Source15ExtractInstanceER16CLR_RT_HeapBlock
080550d8 T _ZN27CLR_RT_ObjectToEvent_Source19EnsureObjectIsAliveEv
08055110 T _ZN27CLR_RT_ObjectToEvent_Source6DetachEv
08055144 T _ZN27CLR_RT_ObjectToEvent_Source8RelocateEv
08052eec T _ZN28CLR_RT_HeapBlock_LockRequest14CreateInstanceEP21CLR_RT_HeapBlock_LockP16CLR_RT_SubThreadRKxb
0802d924 W _ZN29STM32F10x_Timer_Configuration10InitializeEv
08047b84 W _ZN30CLR_RT_HeapBlock_Delegate_List12GetDelegatesEv
08052484 T _ZN30CLR_RT_HeapBlock_Delegate_List14CreateInstanceERPS_j
080524f8 T _ZN30CLR_RT_HeapBlock_Delegate_List15CopyAndCompressEP16CLR_RT_HeapBlockS1_j
08052554 T _ZN30CLR_RT_HeapBlock_Delegate_List6ChangeER16CLR_RT_HeapBlockS1_S1_bb
080528c0 T _ZN30CLR_RT_HeapBlock_Delegate_List6RemoveER16CLR_RT_HeapBlockS1_S1_
08052894 T _ZN30CLR_RT_HeapBlock_Delegate_List7CombineER16CLR_RT_HeapBlockS1_S1_b
080528ec T _ZN30CLR_RT_HeapBlock_Delegate_List8RelocateEv
08054360 T _ZN30CLR_RT_HeapBlock_WaitForObject12SignalObjectER16CLR_RT_HeapBlock
080543d8 T _ZN30CLR_RT_HeapBlock_WaitForObject13WaitForSignalER17CLR_RT_StackFrameRKxP16CLR_RT_HeapBlockjb
080544a8 T _ZN30CLR_RT_HeapBlock_WaitForObject13WaitForSignalER17CLR_RT_StackFrameRKxR16CLR_RT_HeapBlock
08054170 T _ZN30CLR_RT_HeapBlock_WaitForObject14CreateInstanceEP13CLR_RT_ThreadRKxP16CLR_RT_HeapBlockjb
0805421c T _ZN30CLR_RT_HeapBlock_WaitForObject16TryWaitForSignalEP13CLR_RT_Thread
0805425c T _ZN30CLR_RT_HeapBlock_WaitForObject16TryWaitForSignalEP13CLR_RT_ThreadP16CLR_RT_HeapBlockjb
08047bcc W _ZN30CLR_RT_HeapBlock_WaitForObject17GetWaitForObjectsEv
080544d0 T _ZN30CLR_RT_HeapBlock_WaitForObject8RelocateEv
080276d0 T _ZN30CLR_RT_HeapBlock_WeakReference14CreateInstanceERPS_
080279a0 T _ZN30CLR_RT_HeapBlock_WeakReference14RecoverObjectsER20CLR_RT_DblLinkedList
080277d0 T _ZN30CLR_RT_HeapBlock_WeakReference18PrepareForRecoveryEP21CLR_RT_HeapBlock_NodeS1_j
0802777c T _ZN30CLR_RT_HeapBlock_WeakReference21InsertInPriorityOrderEv
080277a4 T _ZN30CLR_RT_HeapBlock_WeakReference8RelocateEv
08027758 T _ZN30CLR_RT_HeapBlock_WeakReference9GetTargetER16CLR_RT_HeapBlock
08027710 T _ZN30CLR_RT_HeapBlock_WeakReference9SetTargetER16CLR_RT_HeapBlock
08021100 W _ZN30CLR_RT_MethodDef_DebuggingInfo10ResetFlagsEh
08046dc4 W _ZN30CLR_RT_MethodDef_DebuggingInfo13SetBreakpointEb
0802112c W _ZN30CLR_RT_MethodDef_DebuggingInfo13SetResetFlagsEbh
080210bc W _ZN30CLR_RT_MethodDef_DebuggingInfo6SetJMCEb
080210dc W _ZN30CLR_RT_MethodDef_DebuggingInfo8SetFlagsEh
080663d4 T _ZN31Library_corlib_native_System_GC38AnyPendingFinalizers___STATIC__BOOLEANER17CLR_RT_StackFrame
08066440 T _ZN31Library_corlib_native_System_GC39SuppressFinalize___STATIC__VOID__OBJECTER17CLR_RT_StackFrame
0806647c T _ZN31Library_corlib_native_System_GC44ReRegisterForFinalize___STATIC__VOID__OBJECTER17CLR_RT_StackFrame
08054ef4 T _ZN32CLR_RT_ObjectToEvent_Destination10InitializeEv
08055000 T _ZN32CLR_RT_ObjectToEvent_Destination15ReleaseWhenDeadEv
08054fc4 T _ZN32CLR_RT_ObjectToEvent_Destination17IsReadyForReleaseEv
08054f0c T _ZN32CLR_RT_ObjectToEvent_Destination8CheckAllEv
08054f98 T _ZN32CLR_RT_ObjectToEvent_Destination9DetachAllEv
08054f4c T _ZN32CLR_RT_ObjectToEvent_Destination9SignalAllEv
0806678c T _ZN33Library_corlib_native_System_Math20Cos___STATIC__R8__R8ER17CLR_RT_StackFrame
08066880 T _ZN33Library_corlib_native_System_Math20Exp___STATIC__R8__R8ER17CLR_RT_StackFrame
08066910 T _ZN33Library_corlib_native_System_Math20Log___STATIC__R8__R8ER17CLR_RT_StackFrame
08066b3c T _ZN33Library_corlib_native_System_Math20Sin___STATIC__R8__R8ER17CLR_RT_StackFrame
08066c14 T _ZN33Library_corlib_native_System_Math20Tan___STATIC__R8__R8ER17CLR_RT_StackFrame
08066608 T _ZN33Library_corlib_native_System_Math21Acos___STATIC__R8__R8ER17CLR_RT_StackFrame
08066650 T _ZN33Library_corlib_native_System_Math21Asin___STATIC__R8__R8ER17CLR_RT_StackFrame
08066698 T _ZN33Library_corlib_native_System_Math21Atan___STATIC__R8__R8ER17CLR_RT_StackFrame
080667d4 T _ZN33Library_corlib_native_System_Math21Cosh___STATIC__R8__R8ER17CLR_RT_StackFrame
08066ac4 T _ZN33Library_corlib_native_System_Math21Sign___STATIC__I4__R8ER17CLR_RT_StackFrame
08066b84 T _ZN33Library_corlib_native_System_Math21Sinh___STATIC__R8__R8ER17CLR_RT_StackFrame
08066bcc T _ZN33Library_corlib_native_System_Math21Sqrt___STATIC__R8__R8ER17CLR_RT_StackFrame
08066c5c T _ZN33Library_corlib_native_System_Math21Tanh___STATIC__R8__R8ER17CLR_RT_StackFrame
080668c8 T _ZN33Library_corlib_native_System_Math22Floor___STATIC__R8__R8ER17CLR_RT_StackFrame
08066958 T _ZN33Library_corlib_native_System_Math22Log10___STATIC__R8__R8ER17CLR_RT_StackFrame
08066a04 T _ZN33Library_corlib_native_System_Math22Round___STATIC__R8__R8ER17CLR_RT_StackFrame
08066744 T _ZN33Library_corlib_native_System_Math24Ceiling___STATIC__R8__R8ER17CLR_RT_StackFrame
080669a0 T _ZN33Library_corlib_native_System_Math24Pow___STATIC__R8__R8__R8ER17CLR_RT_StackFrame
08066ca4 T _ZN33Library_corlib_native_System_Math25Truncate___STATIC__R8__R8ER17CLR_RT_StackFrame
080666e0 T _ZN33Library_corlib_native_System_Math26Atan2___STATIC__R8__R8__R8ER17CLR_RT_StackFrame
0806681c T _ZN33Library_corlib_native_System_Math34IEEERemainder___STATIC__R8__R8__R8ER17CLR_RT_StackFrame
0806c8fc T _ZN33Library_corlib_native_System_Type107InvokeMember___OBJECT__STRING__SystemReflectionBindingFlags__SystemReflectionBinder__OBJECT__SZARRAY_OBJECTER17CLR_RT_StackFrame
0806ce18 T _ZN33Library_corlib_native_System_Type10CheckFlagsER17CLR_RT_StackFramejj
0806d130 T _ZN33Library_corlib_native_System_Type10GetMethodsER17CLR_RT_StackFramePKcjP16CLR_RT_HeapBlockib
0806caf0 T _ZN33Library_corlib_native_System_Type20get_IsEnum___BOOLEANER17CLR_RT_StackFrame
0806cb30 T _ZN33Library_corlib_native_System_Type21get_IsArray___BOOLEANER17CLR_RT_StackFrame
0806ca70 T _ZN33Library_corlib_native_System_Type21get_IsClass___BOOLEANER17CLR_RT_StackFrame
0806ca50 T _ZN33Library_corlib_native_System_Type22get_IsPublic___BOOLEANER17CLR_RT_StackFrame
0806cad0 T _ZN33Library_corlib_native_System_Type24get_IsAbstract___BOOLEANER17CLR_RT_StackFrame
0806ca90 T _ZN33Library_corlib_native_System_Type25get_IsInterface___BOOLEANER17CLR_RT_StackFrame
0806ca30 T _ZN33Library_corlib_native_System_Type25get_IsNotPublic___BOOLEANER17CLR_RT_StackFrame
0806cab0 T _ZN33Library_corlib_native_System_Type25get_IsValueType___BOOLEANER17CLR_RT_StackFrame
0806cb10 T _ZN33Library_corlib_native_System_Type28get_IsSerializable___BOOLEANER17CLR_RT_StackFrame
0806c750 T _ZN33Library_corlib_native_System_Type30get_DeclaringType___SystemTypeER17CLR_RT_StackFrame
0806c858 T _ZN33Library_corlib_native_System_Type34IsInstanceOfType___BOOLEAN__OBJECTER17CLR_RT_StackFrame
0806c9e8 T _ZN33Library_corlib_native_System_Type46GetMethod___SystemReflectionMethodInfo__STRINGER17CLR_RT_StackFrame
0806cdbc T _ZN33Library_corlib_native_System_Type63GetTypeFromHandle___STATIC__SystemType__SystemRuntimeTypeHandleER17CLR_RT_StackFrame
0806c970 T _ZN33Library_corlib_native_System_Type66GetMethod___SystemReflectionMethodInfo__STRING__SZARRAY_SystemTypeER17CLR_RT_StackFrame
0806c918 T _ZN33Library_corlib_native_System_Type68GetConstructor___SystemReflectionConstructorInfo__SZARRAY_SystemTypeER17CLR_RT_StackFrame
0806cb90 T _ZN33Library_corlib_native_System_Type73GetTypeInternal___STATIC__SystemType__STRING__STRING__BOOLEAN__SZARRAY_I4ER17CLR_RT_StackFrame
0806c7fc T _ZN33Library_corlib_native_System_Type76GetMethod___SystemReflectionMethodInfo__STRING__SystemReflectionBindingFlagsER17CLR_RT_StackFrame
0806cea0 T _ZN33Library_corlib_native_System_Type9GetFieldsER17CLR_RT_StackFramePKcjb
08064130 T _ZN34Library_corlib_native_System_Array12TrySZIndexOfER17CLR_RT_StackFrameR16CLR_RT_HeapBlockS3_iibS3_
08063e5c T _ZN34Library_corlib_native_System_Array15get_Length___I4ER17CLR_RT_StackFrame
08063f90 T _ZN34Library_corlib_native_System_Array41Clear___STATIC__VOID__SystemArray__I4__I4ER17CLR_RT_StackFrame
08063d74 T _ZN34Library_corlib_native_System_Array46System_Collections_IList_get_Item___OBJECT__I4ER17CLR_RT_StackFrame
080640c4 T _ZN34Library_corlib_native_System_Array4CopyER17CLR_RT_StackFrameR16CLR_RT_HeapBlockiS3_ii
08063ea8 T _ZN34Library_corlib_native_System_Array52CreateInstance___STATIC__SystemArray__SystemType__I4ER17CLR_RT_StackFrame
08063df8 T _ZN34Library_corlib_native_System_Array52System_Collections_IList_set_Item___VOID__I4__OBJECTER17CLR_RT_StackFrame
08063f20 T _ZN34Library_corlib_native_System_Array57Copy___STATIC__VOID__SystemArray__I4__SystemArray__I4__I4ER17CLR_RT_StackFrame
08064050 T _ZN34Library_corlib_native_System_Array5ClearER17CLR_RT_StackFrameR16CLR_RT_HeapBlockii
08063fdc T _ZN34Library_corlib_native_System_Array69TrySZIndexOf___STATIC__BOOLEAN__SystemArray__I4__I4__OBJECT__BYREF_I4ER17CLR_RT_StackFrame
08065e74 T _ZN35Library_corlib_native_System_Double27IsNaN___STATIC__BOOLEAN__R8ER17CLR_RT_StackFrame
08065dc0 T _ZN35Library_corlib_native_System_Double30CompareTo___STATIC__I4__R8__R8ER17CLR_RT_StackFrame
08065e2c T _ZN35Library_corlib_native_System_Double32IsInfinity___STATIC__BOOLEAN__R8ER17CLR_RT_StackFrame
08065ebc T _ZN35Library_corlib_native_System_Double40IsNegativeInfinity___STATIC__BOOLEAN__R8ER17CLR_RT_StackFrame
08065f04 T _ZN35Library_corlib_native_System_Double40IsPositiveInfinity___STATIC__BOOLEAN__R8ER17CLR_RT_StackFrame
08066d34 T _ZN35Library_corlib_native_System_Number47FormatNative___STATIC__STRING__OBJECT__CHAR__I4ER17CLR_RT_StackFrame
080672e0 T _ZN35Library_corlib_native_System_Object16GetHashCode___I4ER17CLR_RT_StackFrame
08067314 T _ZN35Library_corlib_native_System_Object20GetType___SystemTypeER17CLR_RT_StackFrame
080672a4 T _ZN35Library_corlib_native_System_Object24Equals___BOOLEAN__OBJECTER17CLR_RT_StackFrame
080673d0 T _ZN35Library_corlib_native_System_Object24MemberwiseClone___OBJECTER17CLR_RT_StackFrame
08067408 T _ZN35Library_corlib_native_System_Object49ReferenceEquals___STATIC__BOOLEAN__OBJECT__OBJECTER17CLR_RT_StackFrame
080675ac T _ZN35Library_corlib_native_System_Random12_ctor___VOIDER17CLR_RT_StackFrame
08067488 T _ZN35Library_corlib_native_System_Random13Next___I4__I4ER17CLR_RT_StackFrame
080674fc T _ZN35Library_corlib_native_System_Random15NextDouble___R8ER17CLR_RT_StackFrame
080675e8 T _ZN35Library_corlib_native_System_Random16_ctor___VOID__I4ER17CLR_RT_StackFrame
08067544 T _ZN35Library_corlib_native_System_Random28NextBytes___VOID__SZARRAY_U1ER17CLR_RT_StackFrame
08067638 T _ZN35Library_corlib_native_System_Random9GetRandomER17CLR_RT_StackFrameRP13CLR_RT_Randomb
08067444 T _ZN35Library_corlib_native_System_Random9Next___I4ER17CLR_RT_StackFrame
0806a3a8 T _ZN35Library_corlib_native_System_String10ChangeCaseER17CLR_RT_StackFrameb
0806a040 T _ZN35Library_corlib_native_System_String11ToCharArrayER17CLR_RT_StackFrameii
08069fa8 T _ZN35Library_corlib_native_System_String13FromCharArrayER17CLR_RT_StackFrameii
08069df8 T _ZN35Library_corlib_native_System_String13Trim___STRINGER17CLR_RT_StackFrame
080697d8 T _ZN35Library_corlib_native_System_String15get_Length___I4ER17CLR_RT_StackFrame
08069db8 T _ZN35Library_corlib_native_System_String16ToLower___STRINGER17CLR_RT_StackFrame
08069dd8 T _ZN35Library_corlib_native_System_String16ToUpper___STRINGER17CLR_RT_StackFrame
0806aa1c T _ZN35Library_corlib_native_System_String18ConvertToCharArrayEPKcR16CLR_RT_HeapBlockRP22CLR_RT_HeapBlock_Arrayii
0806ab08 T _ZN35Library_corlib_native_System_String18ConvertToCharArrayER17CLR_RT_StackFrameR16CLR_RT_HeapBlockRP22CLR_RT_HeapBlock_Arrayii
08069b78 T _ZN35Library_corlib_native_System_String18IndexOf___I4__CHARER17CLR_RT_StackFrame
080696ac T _ZN35Library_corlib_native_System_String20get_Chars___CHAR__I4ER17CLR_RT_StackFrame
08069c38 T _ZN35Library_corlib_native_System_String20IndexOf___I4__STRINGER17CLR_RT_StackFrame
08069a24 T _ZN35Library_corlib_native_System_String22_ctor___VOID__CHAR__I4ER17CLR_RT_StackFrame
08069b24 T _ZN35Library_corlib_native_System_String22CompareTo___I4__OBJECTER17CLR_RT_StackFrame
08069b40 T _ZN35Library_corlib_native_System_String22CompareTo___I4__STRINGER17CLR_RT_StackFrame
08069b98 T _ZN35Library_corlib_native_System_String22IndexOf___I4__CHAR__I4ER17CLR_RT_StackFrame
08069c98 T _ZN35Library_corlib_native_System_String22LastIndexOf___I4__CHARER17CLR_RT_StackFrame
08069898 T _ZN35Library_corlib_native_System_String22Substring___STRING__I4ER17CLR_RT_StackFrame
08069c58 T _ZN35Library_corlib_native_System_String24IndexOf___I4__STRING__I4ER17CLR_RT_StackFrame
08069d58 T _ZN35Library_corlib_native_System_String24LastIndexOf___I4__STRINGER17CLR_RT_StackFrame
08069a00 T _ZN35Library_corlib_native_System_String26_ctor___VOID__SZARRAY_CHARER17CLR_RT_StackFrame
08069bb8 T _ZN35Library_corlib_native_System_String26IndexOf___I4__CHAR__I4__I4ER17CLR_RT_StackFrame
08069cb8 T _ZN35Library_corlib_native_System_String26LastIndexOf___I4__CHAR__I4ER17CLR_RT_StackFrame
080698cc T _ZN35Library_corlib_native_System_String26Substring___STRING__I4__I4ER17CLR_RT_StackFrame
08069770 T _ZN35Library_corlib_native_System_String26ToCharArray___SZARRAY_CHARER17CLR_RT_StackFrame
08069920 T _ZN35Library_corlib_native_System_String27Trim___STRING__SZARRAY_CHARER17CLR_RT_StackFrame
08069c78 T _ZN35Library_corlib_native_System_String28IndexOf___I4__STRING__I4__I4ER17CLR_RT_StackFrame
08069d78 T _ZN35Library_corlib_native_System_String28LastIndexOf___I4__STRING__I4ER17CLR_RT_StackFrame
08069bd8 T _ZN35Library_corlib_native_System_String29IndexOfAny___I4__SZARRAY_CHARER17CLR_RT_StackFrame
08069cd8 T _ZN35Library_corlib_native_System_String30LastIndexOf___I4__CHAR__I4__I4ER17CLR_RT_StackFrame
08069988 T _ZN35Library_corlib_native_System_String30TrimEnd___STRING__SZARRAY_CHARER17CLR_RT_StackFrame
08069d98 T _ZN35Library_corlib_native_System_String32LastIndexOf___I4__STRING__I4__I4ER17CLR_RT_StackFrame
08069954 T _ZN35Library_corlib_native_System_String32TrimStart___STRING__SZARRAY_CHARER17CLR_RT_StackFrame
08069bf8 T _ZN35Library_corlib_native_System_String33IndexOfAny___I4__SZARRAY_CHAR__I4ER17CLR_RT_StackFrame
08069cf8 T _ZN35Library_corlib_native_System_String33LastIndexOfAny___I4__SZARRAY_CHARER17CLR_RT_StackFrame
080699bc T _ZN35Library_corlib_native_System_String34_ctor___VOID__SZARRAY_CHAR__I4__I4ER17CLR_RT_StackFrame
08069794 T _ZN35Library_corlib_native_System_String34ToCharArray___SZARRAY_CHAR__I4__I4ER17CLR_RT_StackFrame
08069eac T _ZN35Library_corlib_native_System_String36Compare___STATIC__I4__STRING__STRINGER17CLR_RT_StackFrame
08069830 T _ZN35Library_corlib_native_System_String36Split___SZARRAY_STRING__SZARRAY_CHARER17CLR_RT_StackFrame
08069c18 T _ZN35Library_corlib_native_System_String37IndexOfAny___I4__SZARRAY_CHAR__I4__I4ER17CLR_RT_StackFrame
08069d18 T _ZN35Library_corlib_native_System_String37LastIndexOfAny___I4__SZARRAY_CHAR__I4ER17CLR_RT_StackFrame
08069ee4 T _ZN35Library_corlib_native_System_String39Concat___STATIC__STRING__STRING__STRINGER17CLR_RT_StackFrame
08069f5c T _ZN35Library_corlib_native_System_String39Concat___STATIC__STRING__SZARRAY_STRINGER17CLR_RT_StackFrame
08069e1c T _ZN35Library_corlib_native_System_String40Equals___STATIC__BOOLEAN__STRING__STRINGER17CLR_RT_StackFrame
0806985c T _ZN35Library_corlib_native_System_String40Split___SZARRAY_STRING__SZARRAY_CHAR__I4ER17CLR_RT_StackFrame
08069d38 T _ZN35Library_corlib_native_System_String41LastIndexOfAny___I4__SZARRAY_CHAR__I4__I4ER17CLR_RT_StackFrame
08069e60 T _ZN35Library_corlib_native_System_String45op_Equality___STATIC__BOOLEAN__STRING__STRINGER17CLR_RT_StackFrame
08069f0c T _ZN35Library_corlib_native_System_String47Concat___STATIC__STRING__STRING__STRING__STRINGER17CLR_RT_StackFrame
08069e7c T _ZN35Library_corlib_native_System_String47op_Inequality___STATIC__BOOLEAN__STRING__STRINGER17CLR_RT_StackFrame
0806a578 T _ZN35Library_corlib_native_System_String4TrimER17CLR_RT_StackFrameP22CLR_RT_HeapBlock_Arraybb
08069f34 T _ZN35Library_corlib_native_System_String55Concat___STATIC__STRING__STRING__STRING__STRING__STRINGER17CLR_RT_StackFrame
0806a6ec T _ZN35Library_corlib_native_System_String5SplitER17CLR_RT_StackFrameR16CLR_RT_HeapBlocki
0806a910 T _ZN35Library_corlib_native_System_String6ConcatER17CLR_RT_StackFrameP16CLR_RT_HeapBlocki
0806a074 T _ZN35Library_corlib_native_System_String7IndexOfER17CLR_RT_StackFramei
0806a498 T _ZN35Library_corlib_native_System_String9SubstringER17CLR_RT_StackFrameii
08065a00 T _ZN37Library_corlib_native_System_DateTime11GetValuePtrER16CLR_RT_HeapBlock
080659e0 T _ZN37Library_corlib_native_System_DateTime11GetValuePtrER17CLR_RT_StackFrame
08065568 T _ZN37Library_corlib_native_System_DateTime12get_Day___I4ER17CLR_RT_StackFrame
0806561c T _ZN37Library_corlib_native_System_DateTime13get_Hour___I4ER17CLR_RT_StackFrame
080656f8 T _ZN37Library_corlib_native_System_DateTime13get_Year___I4ER17CLR_RT_StackFrame
080656a0 T _ZN37Library_corlib_native_System_DateTime14get_Month___I4ER17CLR_RT_StackFrame
08065674 T _ZN37Library_corlib_native_System_DateTime15get_Minute___I4ER17CLR_RT_StackFrame
080656cc T _ZN37Library_corlib_native_System_DateTime15get_Second___I4ER17CLR_RT_StackFrame
080655c0 T _ZN37Library_corlib_native_System_DateTime18get_DayOfYear___I4ER17CLR_RT_StackFrame
08065648 T _ZN37Library_corlib_native_System_DateTime20get_Millisecond___I4ER17CLR_RT_StackFrame
08065724 T _ZN37Library_corlib_native_System_DateTime28ToLocalTime___SystemDateTimeER17CLR_RT_StackFrame
08065594 T _ZN37Library_corlib_native_System_DateTime31get_DayOfWeek___SystemDayOfWeekER17CLR_RT_StackFrame
080658a8 T _ZN37Library_corlib_native_System_DateTime32DaysInMonth___STATIC__I4__I4__I4ER17CLR_RT_StackFrame
08065904 T _ZN37Library_corlib_native_System_DateTime32get_Now___STATIC__SystemDateTimeER17CLR_RT_StackFrame
080657e4 T _ZN37Library_corlib_native_System_DateTime32ToUniversalTime___SystemDateTimeER17CLR_RT_StackFrame
0806595c T _ZN37Library_corlib_native_System_DateTime34get_Today___STATIC__SystemDateTimeER17CLR_RT_StackFrame
08065930 T _ZN37Library_corlib_native_System_DateTime35get_UtcNow___STATIC__SystemDateTimeER17CLR_RT_StackFrame
08065484 T _ZN37Library_corlib_native_System_DateTime40_ctor___VOID__I4__I4__I4__I4__I4__I4__I4ER17CLR_RT_StackFrame
08065aa0 T _ZN37Library_corlib_native_System_DateTime6ExpandER17CLR_RT_StackFrameR10SYSTEMTIME
08065ae8 T _ZN37Library_corlib_native_System_DateTime8CompressER17CLR_RT_StackFrameRK10SYSTEMTIME
080659ac T _ZN37Library_corlib_native_System_DateTime9NewObjectER17CLR_RT_StackFrame
08065ce4 T _ZN37Library_corlib_native_System_Delegate15GetLastDelegateEP25CLR_RT_HeapBlock_Delegate
08065bdc T _ZN37Library_corlib_native_System_Delegate19get_Target___OBJECTER17CLR_RT_StackFrame
08065b18 T _ZN37Library_corlib_native_System_Delegate24Equals___BOOLEAN__OBJECTER17CLR_RT_StackFrame
08065b5c T _ZN37Library_corlib_native_System_Delegate39get_Method___SystemReflectionMethodInfoER17CLR_RT_StackFrame
08065c98 T _ZN37Library_corlib_native_System_Delegate61op_Equality___STATIC__BOOLEAN__SystemDelegate__SystemDelegateER17CLR_RT_StackFrame
08065cb4 T _ZN37Library_corlib_native_System_Delegate63op_Inequality___STATIC__BOOLEAN__SystemDelegate__SystemDelegateER17CLR_RT_StackFrame
08065c60 T _ZN37Library_corlib_native_System_Delegate63Remove___STATIC__SystemDelegate__SystemDelegate__SystemDelegateER17CLR_RT_StackFrame
08065c24 T _ZN37Library_corlib_native_System_Delegate64Combine___STATIC__SystemDelegate__SystemDelegate__SystemDelegateER17CLR_RT_StackFrame
0806c658 T _ZN37Library_corlib_native_System_TimeSpan11GetValuePtrER16CLR_RT_HeapBlock
0806c638 T _ZN37Library_corlib_native_System_TimeSpan11GetValuePtrER17CLR_RT_StackFrame
0806c364 T _ZN37Library_corlib_native_System_TimeSpan17ConstructTimeSpanEPxiiiii
0806c18c T _ZN37Library_corlib_native_System_TimeSpan17ToString___STRINGER17CLR_RT_StackFrame
0806c510 T _ZN37Library_corlib_native_System_TimeSpan22CompareTo___I4__OBJECTER17CLR_RT_StackFrame
0806c1f0 T _ZN37Library_corlib_native_System_TimeSpan24_ctor___VOID__I4__I4__I4ER17CLR_RT_StackFrame
0806c13c T _ZN37Library_corlib_native_System_TimeSpan24Equals___BOOLEAN__OBJECTER17CLR_RT_StackFrame
0806c25c T _ZN37Library_corlib_native_System_TimeSpan28_ctor___VOID__I4__I4__I4__I4ER17CLR_RT_StackFrame
0806c2d8 T _ZN37Library_corlib_native_System_TimeSpan32_ctor___VOID__I4__I4__I4__I4__I4ER17CLR_RT_StackFrame
0806c558 T _ZN37Library_corlib_native_System_TimeSpan52Compare___STATIC__I4__SystemTimeSpan__SystemTimeSpanER17CLR_RT_StackFrame
0806c5d4 T _ZN37Library_corlib_native_System_TimeSpan56Equals___STATIC__BOOLEAN__SystemTimeSpan__SystemTimeSpanER17CLR_RT_StackFrame
0806c604 T _ZN37Library_corlib_native_System_TimeSpan9NewObjectER17CLR_RT_StackFrame
0806c6f8 T _ZN37Library_corlib_native_System_TimeZone30GetTimeZoneOffset___STATIC__I8ER17CLR_RT_StackFrame
0806de9c T _ZN38CLR_RT_HeapBlock_NativeEventDispatcher13RecoverFromGCEv
0806e074 T _ZN38CLR_RT_HeapBlock_NativeEventDispatcher13StartDispatchEP27CLR_RT_ApplicationInterruptP13CLR_RT_Thread
0806dddc T _ZN38CLR_RT_HeapBlock_NativeEventDispatcher14CreateInstanceER16CLR_RT_HeapBlockS1_
0806dfbc T _ZN38CLR_RT_HeapBlock_NativeEventDispatcher14SaveToHALQueueEjj
0806deb8 T _ZN38CLR_RT_HeapBlock_NativeEventDispatcher17ReleaseWhenDeadExEv
0806df48 T _ZN38CLR_RT_HeapBlock_NativeEventDispatcher18RemoveFromHALQueueEv
0806e238 T _ZN38CLR_RT_HeapBlock_NativeEventDispatcher20RecoverManagedObjectERP16CLR_RT_HeapBlock
0806dd90 T _ZN38CLR_RT_HeapBlock_NativeEventDispatcher21HandlerMethod_CleanUpEv
0806dd3c T _ZN38CLR_RT_HeapBlock_NativeEventDispatcher24HandlerMethod_InitializeEv
0806e19c T _ZN38CLR_RT_HeapBlock_NativeEventDispatcher25ThreadTerminationCallbackEPv
0806dd50 T _ZN38CLR_RT_HeapBlock_NativeEventDispatcher27HandlerMethod_RecoverFromGCEv
0806e1f0 T _ZN38CLR_RT_HeapBlock_NativeEventDispatcher29RTOSThreadTerminationCallbackEPv
20008a30 B _ZN38CLR_RT_HeapBlock_NativeEventDispatcher9m_ioPortsE
08063c04 T _ZN38Library_corlib_native_System_AppDomain12GetAppDomainER16CLR_RT_HeapBlockRP16CLR_RT_AppDomainS4_b
08063ae0 T _ZN38Library_corlib_native_System_AppDomain38Unload___STATIC__VOID__SystemAppDomainER17CLR_RT_StackFrame
080639b8 T _ZN38Library_corlib_native_System_AppDomain46CreateDomain___STATIC__SystemAppDomain__STRINGER17CLR_RT_StackFrame
08063770 T _ZN38Library_corlib_native_System_AppDomain48GetAssemblies___SZARRAY_SystemReflectionAssemblyER17CLR_RT_StackFrame
080637e4 T _ZN38Library_corlib_native_System_AppDomain72LoadInternal___SystemReflectionAssembly__STRING__BOOLEAN__I4__I4__I4__I4ER17CLR_RT_StackFrame
08026b38 W _ZN38Library_corlib_native_System_Exception10GetHResultEP16CLR_RT_HeapBlock
08026b1c W _ZN38Library_corlib_native_System_Exception10GetMessageEP16CLR_RT_HeapBlock
0806638c T _ZN38Library_corlib_native_System_Exception13GetStackTraceEP16CLR_RT_HeapBlockRj
08066248 T _ZN38Library_corlib_native_System_Exception13SetStackTraceER16CLR_RT_HeapBlockP17CLR_RT_StackFrame
080661d4 T _ZN38Library_corlib_native_System_Exception14CreateInstanceER16CLR_RT_HeapBlockiP17CLR_RT_StackFrame
08066114 T _ZN38Library_corlib_native_System_Exception14CreateInstanceER16CLR_RT_HeapBlockRK20CLR_RT_TypeDef_IndexiP17CLR_RT_StackFrame
08065f4c T _ZN38Library_corlib_native_System_Exception23get_StackTrace___STRINGER17CLR_RT_StackFrame
0806635c T _ZN38Library_corlib_native_System_Exception9GetTargetER16CLR_RT_HeapBlock
0806d6b0 T _ZN38Library_corlib_native_System_ValueType24Equals___BOOLEAN__OBJECTER17CLR_RT_StackFrame
0807045c T _ZN39Library_spot_native_Microsoft_SPOT_Math20Cos___STATIC__I4__I4ER17CLR_RT_StackFrame
0807047c T _ZN39Library_spot_native_Microsoft_SPOT_Math20Sin___STATIC__I4__I4ER17CLR_RT_StackFrame
20003404 V _ZN3MACI7MessageI19IEEE802_15_4_HeaderLt95E19IEEE802_15_4_Footer21IEEE802_15_4_MetadataE9MACConfigE10AppIDIndexE
200033f4 V _ZN3MACI7MessageI19IEEE802_15_4_HeaderLt95E19IEEE802_15_4_Footer21IEEE802_15_4_MetadataE9MACConfigE11AppHandlersE
0802be28 W _ZN3MACI7MessageI19IEEE802_15_4_HeaderLt95E19IEEE802_15_4_Footer21IEEE802_15_4_MetadataE9MACConfigE12GetMyAddressEv
0802bdf0 W _ZN3MACI7MessageI19IEEE802_15_4_HeaderLt95E19IEEE802_15_4_Footer21IEEE802_15_4_MetadataE9MACConfigE12SetMyAddressEt
0802bee0 W _ZN3MACI7MessageI19IEEE802_15_4_HeaderLt95E19IEEE802_15_4_Footer21IEEE802_15_4_MetadataE9MACConfigE13GetAppHandlerEh
0802c098 W _ZN3MACI7MessageI19IEEE802_15_4_HeaderLt95E19IEEE802_15_4_Footer21IEEE802_15_4_MetadataE9MACConfigE13GetAppIdIndexEv
0802bd5c W _ZN3MACI7MessageI19IEEE802_15_4_HeaderLt95E19IEEE802_15_4_Footer21IEEE802_15_4_MetadataE9MACConfigE13SetAppIdIndexEh
0802bd80 W _ZN3MACI7MessageI19IEEE802_15_4_HeaderLt95E19IEEE802_15_4_Footer21IEEE802_15_4_MetadataE9MACConfigE14SetAppHandlersEP15MACEventHandler
08068fe0 T _ZN40Library_corlib_native_System_RuntimeType17get_Name___STRINGER17CLR_RT_StackFrame
080693cc T _ZN40Library_corlib_native_System_RuntimeType17GetTypeDescriptorER16CLR_RT_HeapBlockR23CLR_RT_TypeDef_Instance
080693a0 T _ZN40Library_corlib_native_System_RuntimeType17GetTypeDescriptorER16CLR_RT_HeapBlockR23CLR_RT_TypeDef_InstancePj
08069028 T _ZN40Library_corlib_native_System_RuntimeType21get_FullName___STRINGER17CLR_RT_StackFrame
08069070 T _ZN40Library_corlib_native_System_RuntimeType25get_BaseType___SystemTypeER17CLR_RT_StackFrame
08069300 T _ZN40Library_corlib_native_System_RuntimeType27GetElementType___SystemTypeER17CLR_RT_StackFrame
080691f0 T _ZN40Library_corlib_native_System_RuntimeType34GetInterfaces___SZARRAY_SystemTypeER17CLR_RT_StackFrame
08068f44 T _ZN40Library_corlib_native_System_RuntimeType39get_Assembly___SystemReflectionAssemblyER17CLR_RT_StackFrame
08069180 T _ZN40Library_corlib_native_System_RuntimeType74GetField___SystemReflectionFieldInfo__STRING__SystemReflectionBindingFlagsER17CLR_RT_StackFrame
080691c0 T _ZN40Library_corlib_native_System_RuntimeType75GetFields___SZARRAY_SystemReflectionFieldInfo__SystemReflectionBindingFlagsER17CLR_RT_StackFrame
08069148 T _ZN40Library_corlib_native_System_RuntimeType77GetMethods___SZARRAY_SystemReflectionMethodInfo__SystemReflectionBindingFlagsER17CLR_RT_StackFrame
08069414 T _ZN40Library_corlib_native_System_RuntimeType7GetNameER16CLR_RT_HeapBlockbS1_
0806f4c4 T _ZN40Library_spot_native_Microsoft_SPOT_Debug24GC___STATIC__U4__BOOLEANER17CLR_RT_StackFrame
0806f474 T _ZN40Library_spot_native_Microsoft_SPOT_Debug28Print___STATIC__VOID__STRINGER17CLR_RT_StackFrame
0806f534 T _ZN40Library_spot_native_Microsoft_SPOT_Debug40EnableGCMessages___STATIC__VOID__BOOLEANER17CLR_RT_StackFrame
080645e8 T _ZN41Library_corlib_native_System_BitConverter33GetBytes___STATIC__SZARRAY_U1__I2ER17CLR_RT_StackFrame
08064500 T _ZN41Library_corlib_native_System_BitConverter33GetBytes___STATIC__SZARRAY_U1__I4ER17CLR_RT_StackFrame
08064570 T _ZN41Library_corlib_native_System_BitConverter33GetBytes___STATIC__SZARRAY_U1__I8ER17CLR_RT_StackFrame
08064490 T _ZN41Library_corlib_native_System_BitConverter33GetBytes___STATIC__SZARRAY_U1__R4ER17CLR_RT_StackFrame
08064418 T _ZN41Library_corlib_native_System_BitConverter33GetBytes___STATIC__SZARRAY_U1__R8ER17CLR_RT_StackFrame
08064740 T _ZN41Library_corlib_native_System_BitConverter33GetBytes___STATIC__SZARRAY_U1__U2ER17CLR_RT_StackFrame
08064658 T _ZN41Library_corlib_native_System_BitConverter33GetBytes___STATIC__SZARRAY_U1__U4ER17CLR_RT_StackFrame
080646c8 T _ZN41Library_corlib_native_System_BitConverter33GetBytes___STATIC__SZARRAY_U1__U8ER17CLR_RT_StackFrame
080642ec T _ZN41Library_corlib_native_System_BitConverter34DoubleToInt64Bits___STATIC__I8__R8ER17CLR_RT_StackFrame
080647b0 T _ZN41Library_corlib_native_System_BitConverter34Int64BitsToDouble___STATIC__R8__I8ER17CLR_RT_StackFrame
080643a8 T _ZN41Library_corlib_native_System_BitConverter35GetBytes___STATIC__SZARRAY_U1__CHARER17CLR_RT_StackFrame
080642b0 T _ZN41Library_corlib_native_System_BitConverter36get_IsLittleEndian___STATIC__BOOLEANER17CLR_RT_StackFrame
08064a1c T _ZN41Library_corlib_native_System_BitConverter36ToInt16___STATIC__I2__SZARRAY_U1__I4ER17CLR_RT_StackFrame
08064aac T _ZN41Library_corlib_native_System_BitConverter36ToInt32___STATIC__I4__SZARRAY_U1__I4ER17CLR_RT_StackFrame
08064b38 T _ZN41Library_corlib_native_System_BitConverter36ToInt64___STATIC__I8__SZARRAY_U1__I4ER17CLR_RT_StackFrame
08064870 T _ZN41Library_corlib_native_System_BitConverter37ToChar___STATIC__CHAR__SZARRAY_U1__I4ER17CLR_RT_StackFrame
08064900 T _ZN41Library_corlib_native_System_BitConverter37ToDouble___STATIC__R8__SZARRAY_U1__I4ER17CLR_RT_StackFrame
08064990 T _ZN41Library_corlib_native_System_BitConverter37ToSingle___STATIC__R4__SZARRAY_U1__I4ER17CLR_RT_StackFrame
08064d6c T _ZN41Library_corlib_native_System_BitConverter37ToString___STATIC__STRING__SZARRAY_U1ER17CLR_RT_StackFrame
08064bc4 T _ZN41Library_corlib_native_System_BitConverter37ToUInt16___STATIC__U2__SZARRAY_U1__I4ER17CLR_RT_StackFrame
08064c54 T _ZN41Library_corlib_native_System_BitConverter37ToUInt32___STATIC__U4__SZARRAY_U1__I4ER17CLR_RT_StackFrame
08064ce0 T _ZN41Library_corlib_native_System_BitConverter37ToUInt64___STATIC__U8__SZARRAY_U1__I4ER17CLR_RT_StackFrame
08064330 T _ZN41Library_corlib_native_System_BitConverter38GetBytes___STATIC__SZARRAY_U1__BOOLEANER17CLR_RT_StackFrame
08064df8 T _ZN41Library_corlib_native_System_BitConverter41ToString___STATIC__STRING__SZARRAY_U1__I4ER17CLR_RT_StackFrame
080647f8 T _ZN41Library_corlib_native_System_BitConverter43ToBoolean___STATIC__BOOLEAN__SZARRAY_U1__I4ER17CLR_RT_StackFrame
08064ebc T _ZN41Library_corlib_native_System_BitConverter45ToString___STATIC__STRING__SZARRAY_U1__I4__I4ER17CLR_RT_StackFrame
0806d730 T _ZN42Library_corlib_native_System_WeakReference19get_Target___OBJECTER17CLR_RT_StackFrame
0806d7a8 T _ZN42Library_corlib_native_System_WeakReference20_ctor___VOID__OBJECTER17CLR_RT_StackFrame
0806d6ec T _ZN42Library_corlib_native_System_WeakReference21get_IsAlive___BOOLEANER17CLR_RT_StackFrame
0806d76c T _ZN42Library_corlib_native_System_WeakReference25set_Target___VOID__OBJECTER17CLR_RT_StackFrame
0806bf38 T _ZN44Library_corlib_native_System_Threading_Timer13CheckDisposedER17CLR_RT_StackFrame
0806be60 T _ZN44Library_corlib_native_System_Threading_Timer14Dispose___VOIDER17CLR_RT_StackFrame
0806bec0 T _ZN44Library_corlib_native_System_Threading_Timer24Change___BOOLEAN__I4__I4ER17CLR_RT_StackFrame
0806befc T _ZN44Library_corlib_native_System_Threading_Timer48Change___BOOLEAN__SystemTimeSpan__SystemTimeSpanER17CLR_RT_StackFrame
0806be80 T _ZN44Library_corlib_native_System_Threading_Timer58_ctor___VOID__SystemThreadingTimerCallback__OBJECT__I4__I4ER17CLR_RT_StackFrame
0806bea0 T _ZN44Library_corlib_native_System_Threading_Timer82_ctor___VOID__SystemThreadingTimerCallback__OBJECT__SystemTimeSpan__SystemTimeSpanER17CLR_RT_StackFrame
0806bf50 T _ZN44Library_corlib_native_System_Threading_Timer9SetValuesER17CLR_RT_StackFramej
0806ab40 T _ZN45Library_corlib_native_System_Text_UTF8Decoder100Convert___VOID__SZARRAY_U1__I4__I4__SZARRAY_CHAR__I4__I4__BOOLEAN__BYREF_I4__BYREF_I4__BYREF_BOOLEANER17CLR_RT_StackFrame
0806b914 T _ZN45Library_corlib_native_System_Threading_Thread11Join___VOIDER17CLR_RT_StackFrame
0806b61c T _ZN45Library_corlib_native_System_Threading_Thread12Abort___VOIDER17CLR_RT_StackFrame
0806b550 T _ZN45Library_corlib_native_System_Threading_Thread12Start___VOIDER17CLR_RT_StackFrame
0806b6f0 T _ZN45Library_corlib_native_System_Threading_Thread13Resume___VOIDER17CLR_RT_StackFrame
0806b66c T _ZN45Library_corlib_native_System_Threading_Thread14Suspend___VOIDER17CLR_RT_StackFrame
0806bccc T _ZN45Library_corlib_native_System_Threading_Thread18GetThreadReferenceER17CLR_RT_StackFrame
0806b944 T _ZN45Library_corlib_native_System_Threading_Thread18Join___BOOLEAN__I4ER17CLR_RT_StackFrame
0806bcf0 T _ZN45Library_corlib_native_System_Threading_Thread20ResetThreadReferenceER17CLR_RT_StackFrame
0806b8d0 T _ZN45Library_corlib_native_System_Threading_Thread21get_IsAlive___BOOLEANER17CLR_RT_StackFrame
0806b88c T _ZN45Library_corlib_native_System_Threading_Thread24get_ManagedThreadId___I4ER17CLR_RT_StackFrame
0806baa0 T _ZN45Library_corlib_native_System_Threading_Thread24Sleep___STATIC__VOID__I4ER17CLR_RT_StackFrame
0806b99c T _ZN45Library_corlib_native_System_Threading_Thread30Join___BOOLEAN__SystemTimeSpanER17CLR_RT_StackFrame
0806bc88 T _ZN45Library_corlib_native_System_Threading_Thread35GetDomain___STATIC__SystemAppDomainER17CLR_RT_StackFrame
0806b4c4 T _ZN45Library_corlib_native_System_Threading_Thread40_ctor___VOID__SystemThreadingThreadStartER17CLR_RT_StackFrame
0806b72c T _ZN45Library_corlib_native_System_Threading_Thread44get_Priority___SystemThreadingThreadPriorityER17CLR_RT_StackFrame
0806ba00 T _ZN45Library_corlib_native_System_Threading_Thread44get_ThreadState___SystemThreadingThreadStateER17CLR_RT_StackFrame
0806bb60 T _ZN45Library_corlib_native_System_Threading_Thread49get_CurrentThread___STATIC__SystemThreadingThreadER17CLR_RT_StackFrame
0806bdb8 T _ZN45Library_corlib_native_System_Threading_Thread4JoinER17CLR_RT_StackFrameRKx
0806b7c4 T _ZN45Library_corlib_native_System_Threading_Thread50set_Priority___VOID__SystemThreadingThreadPriorityER17CLR_RT_StackFrame
0806bd48 T _ZN45Library_corlib_native_System_Threading_Thread9GetThreadER17CLR_RT_StackFrameRP13CLR_RT_Threadbb
0806bd14 T _ZN45Library_corlib_native_System_Threading_Thread9SetThreadER17CLR_RT_StackFrameP13CLR_RT_Thread
08070924 T _ZN45Library_spot_native_Microsoft_SPOT_Reflection116GetAssemblyMemoryInfo___STATIC__BOOLEAN__mscorlibSystemReflectionAssembly__MicrosoftSPOTReflectionAssemblyMemoryInfoER17CLR_RT_StackFrame
080706a4 T _ZN45Library_spot_native_Microsoft_SPOT_Reflection44GetTypeHash___STATIC__U4__mscorlibSystemTypeER17CLR_RT_StackFrame
08070d38 T _ZN45Library_spot_native_Microsoft_SPOT_Reflection48GetTypeFromHash___STATIC__mscorlibSystemType__U4ER17CLR_RT_StackFrame
08070664 T _ZN45Library_spot_native_Microsoft_SPOT_Reflection50IsTypeLoaded___STATIC__BOOLEAN__mscorlibSystemTypeER17CLR_RT_StackFrame
08075c70 T _ZN45Library_spot_native_Microsoft_SPOT_Reflection58Serialize___STATIC__SZARRAY_U1__OBJECT__mscorlibSystemTypeER17CLR_RT_StackFrame
08075c8c T _ZN45Library_spot_native_Microsoft_SPOT_Reflection60Deserialize___STATIC__OBJECT__SZARRAY_U1__mscorlibSystemTypeER17CLR_RT_StackFrame
080706f4 T _ZN45Library_spot_native_Microsoft_SPOT_Reflection62GetAssemblyHash___STATIC__U4__mscorlibSystemReflectionAssemblyER17CLR_RT_StackFrame
08070748 T _ZN45Library_spot_native_Microsoft_SPOT_Reflection64GetAssemblies___STATIC__SZARRAY_mscorlibSystemReflectionAssemblyER17CLR_RT_StackFrame
08070dbc T _ZN45Library_spot_native_Microsoft_SPOT_Reflection66GetAssemblyFromHash___STATIC__mscorlibSystemReflectionAssembly__U4ER17CLR_RT_StackFrame
0807078c T _ZN45Library_spot_native_Microsoft_SPOT_Reflection82GetAssemblyInfo___STATIC__BOOLEAN__SZARRAY_U1__MicrosoftSPOTReflectionAssemblyInfoER17CLR_RT_StackFrame
0807049c T _ZN45Library_spot_native_Microsoft_SPOT_Reflection86GetTypesImplementingInterface___STATIC__SZARRAY_mscorlibSystemType__mscorlibSystemTypeER17CLR_RT_StackFrame
08065254 T _ZN46Library_corlib_native_System_Collections_Queue12Clear___VOIDER17CLR_RT_StackFrame
0806531c T _ZN46Library_corlib_native_System_Collections_Queue13Peek___OBJECTER17CLR_RT_StackFrame
080652cc T _ZN46Library_corlib_native_System_Collections_Queue16Dequeue___OBJECTER17CLR_RT_StackFrame
08065288 T _ZN46Library_corlib_native_System_Collections_Queue22Enqueue___VOID__OBJECTER17CLR_RT_StackFrame
080651ec T _ZN46Library_corlib_native_System_Collections_Queue30CopyTo___VOID__SystemArray__I4ER17CLR_RT_StackFrame
0806536c T _ZN46Library_corlib_native_System_Collections_Stack12Clear___VOIDER17CLR_RT_StackFrame
080653f0 T _ZN46Library_corlib_native_System_Collections_Stack12Pop___OBJECTER17CLR_RT_StackFrame
080653a0 T _ZN46Library_corlib_native_System_Collections_Stack13Peek___OBJECTER17CLR_RT_StackFrame
08065440 T _ZN46Library_corlib_native_System_Collections_Stack19Push___VOID__OBJECTER17CLR_RT_StackFrame
08066cfc T _ZN46Library_corlib_native_System_MulticastDelegate79op_Equality___STATIC__BOOLEAN__SystemMulticastDelegate__SystemMulticastDelegateER17CLR_RT_StackFrame
08066d18 T _ZN46Library_corlib_native_System_MulticastDelegate81op_Inequality___STATIC__BOOLEAN__SystemMulticastDelegate__SystemMulticastDelegateER17CLR_RT_StackFrame
0806aebc T _ZN46Library_corlib_native_System_Text_UTF8Encoding16Helper__GetCharsER17CLR_RT_StackFrameb
0806ad58 T _ZN46Library_corlib_native_System_Text_UTF8Encoding29GetBytes___SZARRAY_U1__STRINGER17CLR_RT_StackFrame
0806affc T _ZN46Library_corlib_native_System_Text_UTF8Encoding35GetChars___SZARRAY_CHAR__SZARRAY_U1ER17CLR_RT_StackFrame
0806b028 T _ZN46Library_corlib_native_System_Text_UTF8Encoding43GetChars___SZARRAY_CHAR__SZARRAY_U1__I4__I4ER17CLR_RT_StackFrame
0806add4 T _ZN46Library_corlib_native_System_Text_UTF8Encoding45GetBytes___I4__STRING__I4__I4__SZARRAY_U1__I4ER17CLR_RT_StackFrame
0806b450 T _ZN46Library_corlib_native_System_Threading_Monitor27Exit___STATIC__VOID__OBJECTER17CLR_RT_StackFrame
0806b3a0 T _ZN46Library_corlib_native_System_Threading_Monitor28Enter___STATIC__VOID__OBJECTER17CLR_RT_StackFrame
08070f18 T _ZN47Library_spot_native_Microsoft_SPOT_WeakDelegate87Remove___STATIC__mscorlibSystemDelegate__mscorlibSystemDelegate__mscorlibSystemDelegateER17CLR_RT_StackFrame
08070edc T _ZN47Library_spot_native_Microsoft_SPOT_WeakDelegate88Combine___STATIC__mscorlibSystemDelegate__mscorlibSystemDelegate__mscorlibSystemDelegateER17CLR_RT_StackFrame
08067e40 T _ZN48Library_corlib_native_System_Reflection_Assembly17GetTypeDescriptorER16CLR_RT_HeapBlockR24CLR_RT_Assembly_Instance
080676ac T _ZN48Library_corlib_native_System_Reflection_Assembly21get_FullName___STRINGER17CLR_RT_StackFrame
0806778c T _ZN48Library_corlib_native_System_Reflection_Assembly28GetType___SystemType__STRINGER17CLR_RT_StackFrame
08067854 T _ZN48Library_corlib_native_System_Reflection_Assembly29GetTypes___SZARRAY_SystemTypeER17CLR_RT_StackFrame
08067a10 T _ZN48Library_corlib_native_System_Reflection_Assembly41GetManifestResourceNames___SZARRAY_STRINGER17CLR_RT_StackFrame
08067cfc T _ZN48Library_corlib_native_System_Reflection_Assembly51Load___STATIC__SystemReflectionAssembly__SZARRAY_U1ER17CLR_RT_StackFrame
08067adc T _ZN48Library_corlib_native_System_Reflection_Assembly55GetExecutingAssembly___STATIC__SystemReflectionAssemblyER17CLR_RT_StackFrame
0806793c T _ZN48Library_corlib_native_System_Reflection_Assembly57GetVersion___VOID__BYREF_I4__BYREF_I4__BYREF_I4__BYREF_I4ER17CLR_RT_StackFrame
08067b5c T _ZN48Library_corlib_native_System_Reflection_Assembly80LoadInternal___STATIC__SystemReflectionAssembly__STRING__BOOLEAN__I4__I4__I4__I4ER17CLR_RT_StackFrame
0806f708 T _ZN48Library_spot_native_Microsoft_SPOT_ExtendedTimer106_ctor___VOID__mscorlibSystemThreadingTimerCallback__OBJECT__mscorlibSystemDateTime__mscorlibSystemTimeSpanER17CLR_RT_StackFrame
0806f6e8 T _ZN48Library_spot_native_Microsoft_SPOT_ExtendedTimer106_ctor___VOID__mscorlibSystemThreadingTimerCallback__OBJECT__mscorlibSystemTimeSpan__mscorlibSystemTimeSpanER17CLR_RT_StackFrame
0806f6a8 T _ZN48Library_spot_native_Microsoft_SPOT_ExtendedTimer14Dispose___VOIDER17CLR_RT_StackFrame
0806f77c T _ZN48Library_spot_native_Microsoft_SPOT_ExtendedTimer21Change___VOID__I4__I4ER17CLR_RT_StackFrame
0806f7dc T _ZN48Library_spot_native_Microsoft_SPOT_ExtendedTimer43get_LastExpiration___mscorlibSystemTimeSpanER17CLR_RT_StackFrame
0806f7bc T _ZN48Library_spot_native_Microsoft_SPOT_ExtendedTimer61Change___VOID__mscorlibSystemDateTime__mscorlibSystemTimeSpanER17CLR_RT_StackFrame
0806f79c T _ZN48Library_spot_native_Microsoft_SPOT_ExtendedTimer61Change___VOID__mscorlibSystemTimeSpan__mscorlibSystemTimeSpanER17CLR_RT_StackFrame
0806f6c8 T _ZN48Library_spot_native_Microsoft_SPOT_ExtendedTimer66_ctor___VOID__mscorlibSystemThreadingTimerCallback__OBJECT__I4__I4ER17CLR_RT_StackFrame
0806f728 T _ZN48Library_spot_native_Microsoft_SPOT_ExtendedTimer96_ctor___VOID__mscorlibSystemThreadingTimerCallback__OBJECT__MicrosoftSPOTExtendedTimerTimeEventsER17CLR_RT_StackFrame
0806f834 T _ZN48Library_spot_native_Microsoft_SPOT_ExtendedTimer9SetValuesER17CLR_RT_StackFramej
08065d80 T _ZN49Library_corlib_native_System_Diagnostics_Debugger20Break___STATIC__VOIDER17CLR_RT_StackFrame
08065d48 T _ZN49Library_corlib_native_System_Diagnostics_Debugger32get_IsAttached___STATIC__BOOLEANER17CLR_RT_StackFrame
08068218 T _ZN49Library_corlib_native_System_Reflection_FieldInfo10InitializeER17CLR_RT_StackFrameR24CLR_RT_FieldDef_InstanceR23CLR_RT_TypeDef_InstanceRP16CLR_RT_HeapBlock
08067f18 T _ZN49Library_corlib_native_System_Reflection_FieldInfo31SetValue___VOID__OBJECT__OBJECTER17CLR_RT_StackFrame
0806bf70 T _ZN49Library_corlib_native_System_Threading_WaitHandle30WaitOne___BOOLEAN__I4__BOOLEANER17CLR_RT_StackFrame
0806c080 T _ZN49Library_corlib_native_System_Threading_WaitHandle3SetER17CLR_RT_StackFrame
0806c0cc T _ZN49Library_corlib_native_System_Threading_WaitHandle4WaitER17CLR_RT_StackFrameR16CLR_RT_HeapBlockS3_PS2_ib
0806c0a4 T _ZN49Library_corlib_native_System_Threading_WaitHandle5ResetER17CLR_RT_StackFrame
0806bfdc T _ZN49Library_corlib_native_System_Threading_WaitHandle82WaitMultiple___STATIC__I4__SZARRAY_SystemThreadingWaitHandle__I4__BOOLEAN__BOOLEANER17CLR_RT_StackFrame
080650d0 T _ZN50Library_corlib_native_System_Collections_ArrayList12Clear___VOIDER17CLR_RT_StackFrame
0806506c T _ZN50Library_corlib_native_System_Collections_ArrayList16Add___I4__OBJECTER17CLR_RT_StackFrame
0806515c T _ZN50Library_corlib_native_System_Collections_ArrayList19RemoveAt___VOID__I4ER17CLR_RT_StackFrame
08064fb0 T _ZN50Library_corlib_native_System_Collections_ArrayList21get_Item___OBJECT__I4ER17CLR_RT_StackFrame
080651a4 T _ZN50Library_corlib_native_System_Collections_ArrayList22SetCapacity___VOID__I4ER17CLR_RT_StackFrame
08065104 T _ZN50Library_corlib_native_System_Collections_ArrayList25Insert___VOID__I4__OBJECTER17CLR_RT_StackFrame
08065014 T _ZN50Library_corlib_native_System_Collections_ArrayList27set_Item___VOID__I4__OBJECTER17CLR_RT_StackFrame
080685d4 T _ZN50Library_corlib_native_System_Reflection_MethodBase10CheckFlagsER17CLR_RT_StackFramejj
080684a4 T _ZN50Library_corlib_native_System_Reflection_MethodBase17get_Name___STRINGER17CLR_RT_StackFrame
080685a8 T _ZN50Library_corlib_native_System_Reflection_MethodBase19GetMethodDescriptorER17CLR_RT_StackFrameR16CLR_RT_HeapBlockR25CLR_RT_MethodDef_Instance
08068348 T _ZN50Library_corlib_native_System_Reflection_MethodBase21get_IsFinal___BOOLEANER17CLR_RT_StackFrame
08068308 T _ZN50Library_corlib_native_System_Reflection_MethodBase22get_IsPublic___BOOLEANER17CLR_RT_StackFrame
08068328 T _ZN50Library_corlib_native_System_Reflection_MethodBase22get_IsStatic___BOOLEANER17CLR_RT_StackFrame
08068368 T _ZN50Library_corlib_native_System_Reflection_MethodBase23get_IsVirtual___BOOLEANER17CLR_RT_StackFrame
08068388 T _ZN50Library_corlib_native_System_Reflection_MethodBase24get_IsAbstract___BOOLEANER17CLR_RT_StackFrame
08068500 T _ZN50Library_corlib_native_System_Reflection_MethodBase30get_DeclaringType___SystemTypeER17CLR_RT_StackFrame
080683ac T _ZN50Library_corlib_native_System_Reflection_MethodBase39Invoke___OBJECT__OBJECT__SZARRAY_OBJECTER17CLR_RT_StackFrame
0806b15c T _ZN50Library_corlib_native_System_Threading_Interlocked32Decrement___STATIC__I4__BYREF_I4ER17CLR_RT_StackFrame
0806b0dc T _ZN50Library_corlib_native_System_Threading_Interlocked32Increment___STATIC__I4__BYREF_I4ER17CLR_RT_StackFrame
0806b1dc T _ZN50Library_corlib_native_System_Threading_Interlocked35Exchange___STATIC__I4__BYREF_I4__I4ER17CLR_RT_StackFrame
0806b26c T _ZN50Library_corlib_native_System_Threading_Interlocked46CompareExchange___STATIC__I4__BYREF_I4__I4__I4ER17CLR_RT_StackFrame
08070ec4 T _ZN50Library_spot_native_Microsoft_SPOT_ResourceUtility83set_CurrentUICultureInternal___STATIC__VOID__mscorlibSystemGlobalizationCultureInfoER17CLR_RT_StackFrame
08070e94 T _ZN50Library_spot_native_Microsoft_SPOT_ResourceUtility86GetObject___STATIC__OBJECT__mscorlibSystemResourcesResourceManager__mscorlibSystemEnumER17CLR_RT_StackFrame
08070eac T _ZN50Library_spot_native_Microsoft_SPOT_ResourceUtility94GetObject___STATIC__OBJECT__mscorlibSystemResourcesResourceManager__mscorlibSystemEnum__I4__I4ER17CLR_RT_StackFrame
080700fc T _ZN51Library_spot_native_Microsoft_SPOT_Hardware_Utility13CombineArraysER17CLR_RT_StackFrameR16CLR_RT_HeapBlockiiS3_ii
0806ff9c T _ZN51Library_spot_native_Microsoft_SPOT_Hardware_Utility28Piezo___STATIC__VOID__U4__U4ER17CLR_RT_StackFrame
08070014 T _ZN51Library_spot_native_Microsoft_SPOT_Hardware_Utility29InsertOrExtractValueFromArrayER17CLR_RT_StackFrameb
0806ffdc T _ZN51Library_spot_native_Microsoft_SPOT_Hardware_Utility33Backlight___STATIC__VOID__BOOLEANER17CLR_RT_StackFrame
0806fbe4 T _ZN51Library_spot_native_Microsoft_SPOT_Hardware_Utility47ComputeCRC___STATIC__U4__SZARRAY_U1__I4__I4__U4ER17CLR_RT_StackFrame
0806ff70 T _ZN51Library_spot_native_Microsoft_SPOT_Hardware_Utility47GetMachineTime___STATIC__mscorlibSystemTimeSpanER17CLR_RT_StackFrame
0806fe5c T _ZN51Library_spot_native_Microsoft_SPOT_Hardware_Utility51SetLocalTime___STATIC__VOID__mscorlibSystemDateTimeER17CLR_RT_StackFrame
0806fcb4 T _ZN51Library_spot_native_Microsoft_SPOT_Hardware_Utility54ExtractValueFromArray___STATIC__U4__SZARRAY_U1__I4__I4ER17CLR_RT_StackFrame
0806fda8 T _ZN51Library_spot_native_Microsoft_SPOT_Hardware_Utility58CombineArrays___STATIC__SZARRAY_U1__SZARRAY_U1__SZARRAY_U1ER17CLR_RT_StackFrame
0806fcd4 T _ZN51Library_spot_native_Microsoft_SPOT_Hardware_Utility59InsertValueIntoArray___STATIC__VOID__SZARRAY_U1__I4__I4__U4ER17CLR_RT_StackFrame
0806fcf4 T _ZN51Library_spot_native_Microsoft_SPOT_Hardware_Utility62ExtractRangeFromArray___STATIC__SZARRAY_U1__SZARRAY_U1__I4__I4ER17CLR_RT_StackFrame
0806fde8 T _ZN51Library_spot_native_Microsoft_SPOT_Hardware_Utility74CombineArrays___STATIC__SZARRAY_U1__SZARRAY_U1__I4__I4__SZARRAY_U1__I4__I4ER17CLR_RT_StackFrame
08068644 T _ZN52Library_corlib_native_System_Reflection_PropertyInfo41GetValue___OBJECT__OBJECT__SZARRAY_OBJECTER17CLR_RT_StackFrame
08068660 T _ZN52Library_corlib_native_System_Reflection_PropertyInfo47SetValue___VOID__OBJECT__OBJECT__SZARRAY_OBJECTER17CLR_RT_StackFrame
0806b0c0 T _ZN53Library_corlib_native_System_Threading_AutoResetEvent13Set___BOOLEANER17CLR_RT_StackFrame
0806b0a4 T _ZN53Library_corlib_native_System_Threading_AutoResetEvent15Reset___BOOLEANER17CLR_RT_StackFrame
0806b054 T _ZN53Library_corlib_native_System_Threading_AutoResetEvent21_ctor___VOID__BOOLEANER17CLR_RT_StackFrame
0807679c T _ZN53Library_Samraksh_eMote_Net_Samraksh_eMote_Net_MACBase15GetMACType___U1ER17CLR_RT_StackFrame
08076870 T _ZN53Library_Samraksh_eMote_Net_Samraksh_eMote_Net_MACBase20GetRadioAddress___U2ER17CLR_RT_StackFrame
08076740 T _ZN53Library_Samraksh_eMote_Net_Samraksh_eMote_Net_MACBase31GetPendingPacketCount_Send___U1ER17CLR_RT_StackFrame
080766e4 T _ZN53Library_Samraksh_eMote_Net_Samraksh_eMote_Net_MACBase34GetPendingPacketCount_Receive___U1ER17CLR_RT_StackFrame
08076604 T _ZN53Library_Samraksh_eMote_Net_Samraksh_eMote_Net_MACBase43UnInitialize___SamraksheMoteNetDeviceStatusER17CLR_RT_StackFrame
080769b4 T _ZN53Library_Samraksh_eMote_Net_Samraksh_eMote_Net_MACBase47SetRadioType___SamraksheMoteNetDeviceStatus__U1ER17CLR_RT_StackFrame
08076ac0 T _ZN53Library_Samraksh_eMote_Net_Samraksh_eMote_Net_MACBase49SetChannel___SamraksheMoteNetDeviceStatus__U1__I4ER17CLR_RT_StackFrame
08076a2c T _ZN53Library_Samraksh_eMote_Net_Samraksh_eMote_Net_MACBase49SetTxPower___SamraksheMoteNetDeviceStatus__U1__I4ER17CLR_RT_StackFrame
080767f8 T _ZN53Library_Samraksh_eMote_Net_Samraksh_eMote_Net_MACBase50SetRadioAddress___SamraksheMoteNetDeviceStatus__U2ER17CLR_RT_StackFrame
0807665c T _ZN53Library_Samraksh_eMote_Net_Samraksh_eMote_Net_MACBase55RemovePacket___SamraksheMoteNetDeviceStatus__SZARRAY_U1ER17CLR_RT_StackFrame
08076c84 T _ZN53Library_Samraksh_eMote_Net_Samraksh_eMote_Net_MACBase56GetNextPacket___SamraksheMoteNetDeviceStatus__SZARRAY_U1ER17CLR_RT_StackFrame
080768cc T _ZN53Library_Samraksh_eMote_Net_Samraksh_eMote_Net_MACBase58Send___SamraksheMoteNetNetOpStatus__U2__SZARRAY_U1__U2__U2ER17CLR_RT_StackFrame
08076bfc T _ZN53Library_Samraksh_eMote_Net_Samraksh_eMote_Net_MACBase62InternalReConfigure___SamraksheMoteNetDeviceStatus__SZARRAY_U1ER17CLR_RT_StackFrame
08076b54 T _ZN53Library_Samraksh_eMote_Net_Samraksh_eMote_Net_MACBase65InternalInitialize___SamraksheMoteNetDeviceStatus__SZARRAY_U1__U1ER17CLR_RT_StackFrame
08076d0c T _ZN53Library_Samraksh_eMote_Net_Samraksh_eMote_Net_MACBase66GetNeighborInternal___SamraksheMoteNetDeviceStatus__U2__SZARRAY_U1ER17CLR_RT_StackFrame
08076db4 T _ZN53Library_Samraksh_eMote_Net_Samraksh_eMote_Net_MACBase66GetNeighborListInternal___SamraksheMoteNetDeviceStatus__SZARRAY_U2ER17CLR_RT_StackFrame
08076e3c T _ZN53Library_Samraksh_eMote_Net_Samraksh_eMote_Net_MACBase69SendTimeStamped___SamraksheMoteNetNetOpStatus__U2__SZARRAY_U1__U2__U2ER17CLR_RT_StackFrame
08076f24 T _ZN53Library_Samraksh_eMote_Net_Samraksh_eMote_Net_MACBase73SendTimeStamped___SamraksheMoteNetNetOpStatus__U2__SZARRAY_U1__U2__U2__U4ER17CLR_RT_StackFrame
080786b0 T _ZN53Library_SamrakshEmoteDotNow_Samraksh_eMote_DotNow_NOR36InternalInitialize___STATIC__BOOLEANER17CLR_RT_StackFrame
08078878 T _ZN53Library_SamrakshEmoteDotNow_Samraksh_eMote_DotNow_NOR74InternalRead___STATIC__SamraksheMoteDotNowDeviceStatus__SZARRAY_U2__U4__U2ER17CLR_RT_StackFrame
080786f4 T _ZN53Library_SamrakshEmoteDotNow_Samraksh_eMote_DotNow_NOR75InternalWrite___STATIC__SamraksheMoteDotNowDeviceStatus__SZARRAY_U2__U4__U2ER17CLR_RT_StackFrame
080787a4 T _ZN53Library_SamrakshEmoteDotNow_Samraksh_eMote_DotNow_NOR79InternalWrite___STATIC__SamraksheMoteDotNowDeviceStatus__SZARRAY_U2__U4__U2__U2ER17CLR_RT_StackFrame
08071a60 T _ZN53Library_spot_hardware_native_Microsoft_SPOT_EventSink18EventConfig___VOIDER17CLR_RT_StackFrame
080749b8 T _ZN53Library_spot_native_Microsoft_SPOT_Messaging_EndPoint36_ctor___VOID__mscorlibSystemType__U4ER17CLR_RT_StackFrame
080749f0 T _ZN53Library_spot_native_Microsoft_SPOT_Messaging_EndPoint43Check___BOOLEAN__mscorlibSystemType__U4__I4ER17CLR_RT_StackFrame
080749d4 T _ZN53Library_spot_native_Microsoft_SPOT_Messaging_EndPoint46GetMessage___MicrosoftSPOTMessagingMessage__I4ER17CLR_RT_StackFrame
08074a28 T _ZN53Library_spot_native_Microsoft_SPOT_Messaging_EndPoint58ReplyRaw___VOID__MicrosoftSPOTMessagingMessage__SZARRAY_U1ER17CLR_RT_StackFrame
08074a0c T _ZN53Library_spot_native_Microsoft_SPOT_Messaging_EndPoint67SendMessageRaw___SZARRAY_U1__mscorlibSystemType__U4__I4__SZARRAY_U1ER17CLR_RT_StackFrame
08066518 T _ZN54Library_corlib_native_System_Globalization_CultureInfo69get_CurrentUICultureInternal___STATIC__SystemGlobalizationCultureInfoER17CLR_RT_StackFrame
0806654c T _ZN54Library_corlib_native_System_Globalization_CultureInfo75set_CurrentUICultureInternal___STATIC__VOID__SystemGlobalizationCultureInfoER17CLR_RT_StackFrame
08068ab8 T _ZN54Library_corlib_native_System_Resources_ResourceManager30GetObjectInternal___OBJECT__I2ER17CLR_RT_StackFrame
08068c88 T _ZN54Library_corlib_native_System_Resources_ResourceManager38GetObjectInternal___OBJECT__I2__I4__I4ER17CLR_RT_StackFrame
08068a28 T _ZN54Library_corlib_native_System_Resources_ResourceManager59FindResource___STATIC__I4__STRING__SystemReflectionAssemblyER17CLR_RT_StackFrame
08068e04 T _ZN54Library_corlib_native_System_Resources_ResourceManager70GetObject___STATIC__OBJECT__SystemResourcesResourceManager__SystemEnumER17CLR_RT_StackFrame
08068ec8 T _ZN54Library_corlib_native_System_Resources_ResourceManager78GetObject___STATIC__OBJECT__SystemResourcesResourceManager__SystemEnum__I4__I4ER17CLR_RT_StackFrame
08078cf8 T _ZN54Library_SamrakshEmoteDSP_Samraksh_eMote_DSP_Statistics20Sum___U8__SZARRAY_U1ER17CLR_RT_StackFrame
08078d84 T _ZN54Library_SamrakshEmoteDSP_Samraksh_eMote_DSP_Statistics20Sum___U8__SZARRAY_U2ER17CLR_RT_StackFrame
08078e10 T _ZN54Library_SamrakshEmoteDSP_Samraksh_eMote_DSP_Statistics20Sum___U8__SZARRAY_U4ER17CLR_RT_StackFrame
08078e9c T _ZN54Library_SamrakshEmoteDSP_Samraksh_eMote_DSP_Statistics20Sum___U8__SZARRAY_U8ER17CLR_RT_StackFrame
08079154 T _ZN54Library_SamrakshEmoteDSP_Samraksh_eMote_DSP_Statistics21Mode___U1__SZARRAY_U1ER17CLR_RT_StackFrame
080791e0 T _ZN54Library_SamrakshEmoteDSP_Samraksh_eMote_DSP_Statistics21Mode___U2__SZARRAY_U2ER17CLR_RT_StackFrame
0807926c T _ZN54Library_SamrakshEmoteDSP_Samraksh_eMote_DSP_Statistics21Mode___U4__SZARRAY_U4ER17CLR_RT_StackFrame
080792f4 T _ZN54Library_SamrakshEmoteDSP_Samraksh_eMote_DSP_Statistics21Mode___U8__SZARRAY_U8ER17CLR_RT_StackFrame
08078f28 T _ZN54Library_SamrakshEmoteDSP_Samraksh_eMote_DSP_Statistics23Median___U1__SZARRAY_U1ER17CLR_RT_StackFrame
08078fb4 T _ZN54Library_SamrakshEmoteDSP_Samraksh_eMote_DSP_Statistics23Median___U2__SZARRAY_U2ER17CLR_RT_StackFrame
08079040 T _ZN54Library_SamrakshEmoteDSP_Samraksh_eMote_DSP_Statistics23Median___U4__SZARRAY_U4ER17CLR_RT_StackFrame
080790c8 T _ZN54Library_SamrakshEmoteDSP_Samraksh_eMote_DSP_Statistics23Median___U8__SZARRAY_U8ER17CLR_RT_StackFrame
08079380 T _ZN54Library_SamrakshEmoteDSP_Samraksh_eMote_DSP_Statistics25Variance___R8__SZARRAY_U1ER17CLR_RT_StackFrame
0807940c T _ZN54Library_SamrakshEmoteDSP_Samraksh_eMote_DSP_Statistics25Variance___R8__SZARRAY_U2ER17CLR_RT_StackFrame
08079498 T _ZN54Library_SamrakshEmoteDSP_Samraksh_eMote_DSP_Statistics25Variance___R8__SZARRAY_U4ER17CLR_RT_StackFrame
08079524 T _ZN54Library_SamrakshEmoteDSP_Samraksh_eMote_DSP_Statistics25Variance___R8__SZARRAY_U8ER17CLR_RT_StackFrame
0807988c T _ZN54Library_SamrakshEmoteDSP_Samraksh_eMote_DSP_Transforms41FFT___BOOLEAN__SZARRAY_I2__SZARRAY_I2__U2ER17CLR_RT_StackFrame
080795f8 T _ZN54Library_SamrakshEmoteDSP_Samraksh_eMote_DSP_Transforms41FFT___BOOLEAN__SZARRAY_U1__SZARRAY_U1__U2ER17CLR_RT_StackFrame
080796d4 T _ZN54Library_SamrakshEmoteDSP_Samraksh_eMote_DSP_Transforms41FFT___BOOLEAN__SZARRAY_U2__SZARRAY_U2__U2ER17CLR_RT_StackFrame
080797b0 T _ZN54Library_SamrakshEmoteDSP_Samraksh_eMote_DSP_Transforms41FFT___BOOLEAN__SZARRAY_U4__SZARRAY_U4__U2ER17CLR_RT_StackFrame
08079968 T _ZN54Library_SamrakshEmoteDSP_Samraksh_eMote_DSP_Transforms42IFFT___BOOLEAN__SZARRAY_U1__SZARRAY_U1__U2ER17CLR_RT_StackFrame
08079a44 T _ZN54Library_SamrakshEmoteDSP_Samraksh_eMote_DSP_Transforms42IFFT___BOOLEAN__SZARRAY_U2__SZARRAY_U2__U2ER17CLR_RT_StackFrame
08079b20 T _ZN54Library_SamrakshEmoteDSP_Samraksh_eMote_DSP_Transforms42IFFT___BOOLEAN__SZARRAY_U4__SZARRAY_U4__U2ER17CLR_RT_StackFrame
0806f570 T _ZN54Library_spot_native_Microsoft_SPOT_ExecutionConstraint30Install___STATIC__VOID__I4__I4ER17CLR_RT_StackFrame
080702dc T _ZN54Library_spot_native_Microsoft_SPOT_Hardware_SystemInfo30get_OEMString___STATIC__STRINGER17CLR_RT_StackFrame
0807030c T _ZN54Library_spot_native_Microsoft_SPOT_Hardware_SystemInfo33get_IsBigEndian___STATIC__BOOLEANER17CLR_RT_StackFrame
080701f4 T _ZN54Library_spot_native_Microsoft_SPOT_Hardware_SystemInfo71GetSystemVersion___STATIC__VOID__BYREF_I4__BYREF_I4__BYREF_I4__BYREF_I4ER17CLR_RT_StackFrame
08067e68 T _ZN55Library_corlib_native_System_Reflection_ConstructorInfo31Invoke___OBJECT__SZARRAY_OBJECTER17CLR_RT_StackFrame
0806b384 T _ZN55Library_corlib_native_System_Threading_ManualResetEvent13Set___BOOLEANER17CLR_RT_StackFrame
0806b368 T _ZN55Library_corlib_native_System_Threading_ManualResetEvent15Reset___BOOLEANER17CLR_RT_StackFrame
0806b320 T _ZN55Library_corlib_native_System_Threading_ManualResetEvent21_ctor___VOID__BOOLEANER17CLR_RT_StackFrame
0806867c T _ZN56Library_corlib_native_System_Reflection_RuntimeFieldInfo17get_Name___STRINGER17CLR_RT_StackFrame
08068954 T _ZN56Library_corlib_native_System_Reflection_RuntimeFieldInfo18GetFieldDescriptorER17CLR_RT_StackFrameR16CLR_RT_HeapBlockR24CLR_RT_FieldDef_Instance
08068834 T _ZN56Library_corlib_native_System_Reflection_RuntimeFieldInfo25GetValue___OBJECT__OBJECTER17CLR_RT_StackFrame
0806878c T _ZN56Library_corlib_native_System_Reflection_RuntimeFieldInfo26get_FieldType___SystemTypeER17CLR_RT_StackFrame
080686e0 T _ZN56Library_corlib_native_System_Reflection_RuntimeFieldInfo30get_DeclaringType___SystemTypeER17CLR_RT_StackFrame
08071868 T _ZN56Library_spot_hardware_native_Microsoft_SPOT_Hardware_Cpu26get_SlowClock___STATIC__U4ER17CLR_RT_StackFrame
08071840 T _ZN56Library_spot_hardware_native_Microsoft_SPOT_Hardware_Cpu28get_SystemClock___STATIC__U4ER17CLR_RT_StackFrame
08071890 T _ZN56Library_spot_hardware_native_Microsoft_SPOT_Hardware_Cpu53get_GlitchFilterTime___STATIC__mscorlibSystemTimeSpanER17CLR_RT_StackFrame
0807192c T _ZN56Library_spot_hardware_native_Microsoft_SPOT_Hardware_Cpu59set_GlitchFilterTime___STATIC__VOID__mscorlibSystemTimeSpanER17CLR_RT_StackFrame
08073c28 T _ZN56Library_spot_hardware_native_Microsoft_SPOT_Hardware_SPI68InternalWriteRead___VOID__SZARRAY_U1__I4__I4__SZARRAY_U1__I4__I4__I4ER17CLR_RT_StackFrame
08073ae4 T _ZN56Library_spot_hardware_native_Microsoft_SPOT_Hardware_SPI68InternalWriteRead___VOID__SZARRAY_U2__I4__I4__SZARRAY_U2__I4__I4__I4ER17CLR_RT_StackFrame
0806f994 T _ZN56Library_spot_native_Microsoft_SPOT_ExtendedWeakReference11get_Id___U4ER17CLR_RT_StackFrame
0806f9d0 T _ZN56Library_spot_native_Microsoft_SPOT_ExtendedWeakReference14get_Flags___U4ER17CLR_RT_StackFrame
0806fa0c T _ZN56Library_spot_native_Microsoft_SPOT_ExtendedWeakReference17get_Priority___I4ER17CLR_RT_StackFrame
0806fb98 T _ZN56Library_spot_native_Microsoft_SPOT_ExtendedWeakReference23FlushAll___STATIC__VOIDER17CLR_RT_StackFrame
0806fa44 T _ZN56Library_spot_native_Microsoft_SPOT_ExtendedWeakReference23set_Priority___VOID__I4ER17CLR_RT_StackFrame
0806fa8c T _ZN56Library_spot_native_Microsoft_SPOT_ExtendedWeakReference30PushBackIntoRecoverList___VOIDER17CLR_RT_StackFrame
0806f910 T _ZN56Library_spot_native_Microsoft_SPOT_ExtendedWeakReference33get_Selector___mscorlibSystemTypeER17CLR_RT_StackFrame
0806f854 T _ZN56Library_spot_native_Microsoft_SPOT_ExtendedWeakReference48_ctor___VOID__OBJECT__mscorlibSystemType__U4__U4ER17CLR_RT_StackFrame
0806fac8 T _ZN56Library_spot_native_Microsoft_SPOT_ExtendedWeakReference76Recover___STATIC__MicrosoftSPOTExtendedWeakReference__mscorlibSystemType__U4ER17CLR_RT_StackFrame
08066580 T _ZN57Library_corlib_native_System_Globalization_DateTimeFormat37FormatDigits___STATIC__STRING__I4__I4ER17CLR_RT_StackFrame
08068974 T _ZN57Library_corlib_native_System_Reflection_RuntimeMethodInfo27get_ReturnType___SystemTypeER17CLR_RT_StackFrame
08073078 T _ZN57Library_spot_hardware_native_Microsoft_SPOT_Hardware_Port11ChangeStateEP16CLR_RT_HeapBlockP38CLR_RT_HeapBlock_NativeEventDispatcherb
08073470 T _ZN57Library_spot_hardware_native_Microsoft_SPOT_Hardware_Port129_ctor___VOID__MicrosoftSPOTHardwareCpuPin__BOOLEAN__MicrosoftSPOTHardwarePortResistorMode__MicrosoftSPOTHardwarePortInterruptModeER17CLR_RT_StackFrame
08072f8c T _ZN57Library_spot_hardware_native_Microsoft_SPOT_Hardware_Port12IsrProcedureEjjPv
08073654 T _ZN57Library_spot_hardware_native_Microsoft_SPOT_Hardware_Port14Read___BOOLEANER17CLR_RT_StackFrame
080731b4 T _ZN57Library_spot_hardware_native_Microsoft_SPOT_Hardware_Port23Dispose___VOID__BOOLEANER17CLR_RT_StackFrame
080736d0 T _ZN57Library_spot_hardware_native_Microsoft_SPOT_Hardware_Port36get_Id___MicrosoftSPOTHardwareCpuPinER17CLR_RT_StackFrame
0807351c T _ZN57Library_spot_hardware_native_Microsoft_SPOT_Hardware_Port50_ctor___VOID__MicrosoftSPOTHardwareCpuPin__BOOLEANER17CLR_RT_StackFrame
08073714 T _ZN57Library_spot_hardware_native_Microsoft_SPOT_Hardware_Port66ReservePin___STATIC__BOOLEAN__MicrosoftSPOTHardwareCpuPin__BOOLEANER17CLR_RT_StackFrame
080735a0 T _ZN57Library_spot_hardware_native_Microsoft_SPOT_Hardware_Port98_ctor___VOID__MicrosoftSPOTHardwareCpuPin__BOOLEAN__BOOLEAN__MicrosoftSPOTHardwarePortResistorModeER17CLR_RT_StackFrame
08078288 T _ZN58Library_SamrakshEmoteDotNow_Samraksh_eMote_DotNow_EmoteLCD111Write___BOOLEAN__SamraksheMoteDotNowLCD__SamraksheMoteDotNowLCD__SamraksheMoteDotNowLCD__SamraksheMoteDotNowLCDER17CLR_RT_StackFrame
08078654 T _ZN58Library_SamrakshEmoteDotNow_Samraksh_eMote_DotNow_EmoteLCD15Clear___BOOLEANER17CLR_RT_StackFrame
080781d0 T _ZN58Library_SamrakshEmoteDotNow_Samraksh_eMote_DotNow_EmoteLCD20Initialize___BOOLEANER17CLR_RT_StackFrame
0807822c T _ZN58Library_SamrakshEmoteDotNow_Samraksh_eMote_DotNow_EmoteLCD22Uninitialize___BOOLEANER17CLR_RT_StackFrame
080784f0 T _ZN58Library_SamrakshEmoteDotNow_Samraksh_eMote_DotNow_EmoteLCD39WriteRawBytes___BOOLEAN__I4__I4__I4__I4ER17CLR_RT_StackFrame
080785d4 T _ZN58Library_SamrakshEmoteDotNow_Samraksh_eMote_DotNow_EmoteLCD41Blink___BOOLEAN__SamraksheMoteDotNowBlinkER17CLR_RT_StackFrame
08078454 T _ZN58Library_SamrakshEmoteDotNow_Samraksh_eMote_DotNow_EmoteLCD44WriteN___BOOLEAN__I4__SamraksheMoteDotNowLCDER17CLR_RT_StackFrame
0807836c T _ZN58Library_SamrakshEmoteDotNow_Samraksh_eMote_DotNow_EmoteLCD51SetDP___BOOLEAN__BOOLEAN__BOOLEAN__BOOLEAN__BOOLEANER17CLR_RT_StackFrame
080350f0 T _ZN59Library_SamrakshEmoteRealtime_Samraksh_eMote_RealTime_Timer14Dispose___VOIDER17CLR_RT_StackFrame
0803513c T _ZN59Library_SamrakshEmoteRealtime_Samraksh_eMote_RealTime_Timer24Change___BOOLEAN__U4__U4ER17CLR_RT_StackFrame
080351d8 T _ZN59Library_SamrakshEmoteRealtime_Samraksh_eMote_RealTime_Timer24GenerateInterrupt___VOIDER17CLR_RT_StackFrame
0802ec0c W _ZN5RadioI7MessageI19IEEE802_15_4_HeaderLt95E19IEEE802_15_4_Footer21IEEE802_15_4_MetadataEE10GetAddressEv
0802ec24 W _ZN5RadioI7MessageI19IEEE802_15_4_HeaderLt95E19IEEE802_15_4_Footer21IEEE802_15_4_MetadataEE10SetAddressEt
08034ba4 W _ZN5RadioI7MessageI19IEEE802_15_4_HeaderLt95E19IEEE802_15_4_Footer21IEEE802_15_4_MetadataEE14SetInitializedEj
08035264 W _ZN5State10ForceStateEh
08035224 W _ZN5State12RequestStateEh
08035280 W _ZN5State6ToIdleEv
080303f0 W _ZN5State7IsStateEh
08035298 W _ZN5State8GetStateEv
08042a20 W _ZN5STM324AITCEv
08078b10 T _ZN60Library_SamrakshEmoteDotNow_Samraksh_eMote_DotNow_SDInternal60InternalInitialize___STATIC__SamraksheMoteDotNowDeviceStatusER17CLR_RT_StackFrame
08078c24 T _ZN60Library_SamrakshEmoteDotNow_Samraksh_eMote_DotNow_SDInternal78InternalRead___STATIC__SamraksheMoteDotNowDeviceStatus__SZARRAY_U1__U2__U2__U4ER17CLR_RT_StackFrame
08078b50 T _ZN60Library_SamrakshEmoteDotNow_Samraksh_eMote_DotNow_SDInternal79InternalWrite___STATIC__SamraksheMoteDotNowDeviceStatus__SZARRAY_U1__U2__U2__U4ER17CLR_RT_StackFrame
080714c8 T _ZN60Library_spot_hardware_native_Microsoft_SPOT_Hardware_Battery24ReadVoltage___STATIC__I4ER17CLR_RT_StackFrame
080715f0 T _ZN60Library_spot_hardware_native_Microsoft_SPOT_Hardware_Battery26StateOfCharge___STATIC__I4ER17CLR_RT_StackFrame
08071550 T _ZN60Library_spot_hardware_native_Microsoft_SPOT_Hardware_Battery27OnCharger___STATIC__BOOLEANER17CLR_RT_StackFrame
0807150c T _ZN60Library_spot_hardware_native_Microsoft_SPOT_Hardware_Battery28ReadTemperature___STATIC__I4ER17CLR_RT_StackFrame
080715a0 T _ZN60Library_spot_hardware_native_Microsoft_SPOT_Hardware_Battery32IsFullyCharged___STATIC__BOOLEANER17CLR_RT_StackFrame
08071634 T _ZN60Library_spot_hardware_native_Microsoft_SPOT_Hardware_Battery34WaitForEvent___STATIC__BOOLEAN__I4ER17CLR_RT_StackFrame
08077e4c T _ZN61Library_SamrakshEmoteDotNow_Samraksh_eMote_DotNow_ADCInternal103ConfigureBatchModeDualChannel___STATIC__SamraksheMoteDotNowDeviceStatus__SZARRAY_U2__SZARRAY_U2__U4__U4ER17CLR_RT_StackFrame
08078024 T _ZN61Library_SamrakshEmoteDotNow_Samraksh_eMote_DotNow_ADCInternal104ConfigureBatchModeWithThresholding___STATIC__SamraksheMoteDotNowDeviceStatus__SZARRAY_U2__I4__U4__U4__U4ER17CLR_RT_StackFrame
08077d6c T _ZN61Library_SamrakshEmoteDotNow_Samraksh_eMote_DotNow_ADCInternal108ConfigureContinuousModeDualChannel___STATIC__SamraksheMoteDotNowDeviceStatus__SZARRAY_U2__SZARRAY_U2__U4__U4ER17CLR_RT_StackFrame
08077f2c T _ZN61Library_SamrakshEmoteDotNow_Samraksh_eMote_DotNow_ADCInternal109ConfigureContinuousModeWithThresholding___STATIC__SamraksheMoteDotNowDeviceStatus__SZARRAY_U2__I4__U4__U4__U4ER17CLR_RT_StackFrame
08077abc T _ZN61Library_SamrakshEmoteDotNow_Samraksh_eMote_DotNow_ADCInternal21Init___STATIC__I4__I4ER17CLR_RT_StackFrame
08077b60 T _ZN61Library_SamrakshEmoteDotNow_Samraksh_eMote_DotNow_ADCInternal21Read___STATIC__R8__I4ER17CLR_RT_StackFrame
08077b1c T _ZN61Library_SamrakshEmoteDotNow_Samraksh_eMote_DotNow_ADCInternal24Uninit___STATIC__BOOLEANER17CLR_RT_StackFrame
08078190 T _ZN61Library_SamrakshEmoteDotNow_Samraksh_eMote_DotNow_ADCInternal25StopSampling___STATIC__I4ER17CLR_RT_StackFrame
0807811c T _ZN61Library_SamrakshEmoteDotNow_Samraksh_eMote_DotNow_ADCInternal45DualChannelRead___STATIC__BOOLEAN__SZARRAY_U2ER17CLR_RT_StackFrame
08077bc4 T _ZN61Library_SamrakshEmoteDotNow_Samraksh_eMote_DotNow_ADCInternal84ConfigureBatchMode___STATIC__SamraksheMoteDotNowDeviceStatus__SZARRAY_U2__I4__U4__U4ER17CLR_RT_StackFrame
08077c98 T _ZN61Library_SamrakshEmoteDotNow_Samraksh_eMote_DotNow_ADCInternal89ConfigureContinuousMode___STATIC__SamraksheMoteDotNowDeviceStatus__SZARRAY_U2__I4__U4__U4ER17CLR_RT_StackFrame
080745a4 T _ZN61Library_spot_hardware_native_Microsoft_SPOT_Hardware_Watchdog143GetLastOcurrenceDetails___STATIC__BOOLEAN__BYREF_mscorlibSystemDateTime__BYREF_mscorlibSystemTimeSpan__BYREF_mscorlibSystemReflectionMethodInfoER17CLR_RT_StackFrame
08074388 T _ZN61Library_spot_hardware_native_Microsoft_SPOT_Hardware_Watchdog29get_Enabled___STATIC__BOOLEANER17CLR_RT_StackFrame
080743bc T _ZN61Library_spot_hardware_native_Microsoft_SPOT_Hardware_Watchdog35set_Enabled___STATIC__VOID__BOOLEANER17CLR_RT_StackFrame
08074418 T _ZN61Library_spot_hardware_native_Microsoft_SPOT_Hardware_Watchdog44get_Timeout___STATIC__mscorlibSystemTimeSpanER17CLR_RT_StackFrame
080744b8 T _ZN61Library_spot_hardware_native_Microsoft_SPOT_Hardware_Watchdog50set_Timeout___STATIC__VOID__mscorlibSystemTimeSpanER17CLR_RT_StackFrame
0807456c T _ZN61Library_spot_hardware_native_Microsoft_SPOT_Hardware_Watchdog54get_Log___STATIC__MicrosoftSPOTNativeMicrosoftSPOTILogER17CLR_RT_StackFrame
08074504 T _ZN61Library_spot_hardware_native_Microsoft_SPOT_Hardware_Watchdog60get_Behavior___STATIC__MicrosoftSPOTHardwareWatchdogBehaviorER17CLR_RT_StackFrame
08074588 T _ZN61Library_spot_hardware_native_Microsoft_SPOT_Hardware_Watchdog60set_Log___STATIC__VOID__MicrosoftSPOTNativeMicrosoftSPOTILogER17CLR_RT_StackFrame
0807452c T _ZN61Library_spot_hardware_native_Microsoft_SPOT_Hardware_Watchdog66set_Behavior___STATIC__VOID__MicrosoftSPOTHardwareWatchdogBehaviorER17CLR_RT_StackFrame
08069674 T _ZN62Library_corlib_native_System_Runtime_Remoting_RemotingServices44IsTransparentProxy___STATIC__BOOLEAN__OBJECTER17CLR_RT_StackFrame
080724bc T _ZN62Library_spot_hardware_native_Microsoft_SPOT_Hardware_I2CDevice17Initialize___VOIDER17CLR_RT_StackFrame
08072508 T _ZN62Library_spot_hardware_native_Microsoft_SPOT_Hardware_I2CDevice70Execute___I4__SZARRAY_MicrosoftSPOTHardwareI2CDeviceI2CTransaction__I4ER17CLR_RT_StackFrame
080729ec T _ZN62Library_spot_hardware_native_Microsoft_SPOT_Hardware_InputPort26get_GlitchFilter___BOOLEANER17CLR_RT_StackFrame
08072a30 T _ZN62Library_spot_hardware_native_Microsoft_SPOT_Hardware_InputPort32set_GlitchFilter___VOID__BOOLEANER17CLR_RT_StackFrame
08072920 T _ZN62Library_spot_hardware_native_Microsoft_SPOT_Hardware_InputPort52get_Resistor___MicrosoftSPOTHardwarePortResistorModeER17CLR_RT_StackFrame
08072964 T _ZN62Library_spot_hardware_native_Microsoft_SPOT_Hardware_InputPort58set_Resistor___VOID__MicrosoftSPOTHardwarePortResistorModeER17CLR_RT_StackFrame
080750f0 T _ZN62Library_spot_hardware_serial_native_System_IO_Ports_SerialPort12Flush___VOIDER17CLR_RT_StackFrame
08074a5c T _ZN62Library_spot_hardware_serial_native_System_IO_Ports_SerialPort19InternalOpen___VOIDER17CLR_RT_StackFrame
08074b68 T _ZN62Library_spot_hardware_serial_native_System_IO_Ports_SerialPort20InternalClose___VOIDER17CLR_RT_StackFrame
08075088 T _ZN62Library_spot_hardware_serial_native_System_IO_Ports_SerialPort22InternalDispose___VOIDER17CLR_RT_StackFrame
080751a8 T _ZN62Library_spot_hardware_serial_native_System_IO_Ports_SerialPort27BytesInBuffer___I4__BOOLEANER17CLR_RT_StackFrame
08075264 T _ZN62Library_spot_hardware_serial_native_System_IO_Ports_SerialPort29DiscardBuffer___VOID__BOOLEANER17CLR_RT_StackFrame
08074c1c T _ZN62Library_spot_hardware_serial_native_System_IO_Ports_SerialPort29Read___I4__SZARRAY_U1__I4__I4ER17CLR_RT_StackFrame
08074e2c T _ZN62Library_spot_hardware_serial_native_System_IO_Ports_SerialPort32Write___VOID__SZARRAY_U1__I4__I4ER17CLR_RT_StackFrame
08072e98 T _ZN63Library_spot_hardware_native_Microsoft_SPOT_Hardware_OutputPort21Write___VOID__BOOLEANER17CLR_RT_StackFrame
08072f48 T _ZN63Library_spot_hardware_native_Microsoft_SPOT_Hardware_OutputPort26get_InitialState___BOOLEANER17CLR_RT_StackFrame
08073784 T _ZN63Library_spot_hardware_native_Microsoft_SPOT_Hardware_PowerState30Reboot___STATIC__VOID__BOOLEANER17CLR_RT_StackFrame
080737c8 T _ZN63Library_spot_hardware_native_Microsoft_SPOT_Hardware_PowerState40WaitForIdleCPU___STATIC__BOOLEAN__I4__I4ER17CLR_RT_StackFrame
08073954 T _ZN63Library_spot_hardware_native_Microsoft_SPOT_Hardware_PowerState43get_Uptime___STATIC__mscorlibSystemTimeSpanER17CLR_RT_StackFrame
080738ec T _ZN63Library_spot_hardware_native_Microsoft_SPOT_Hardware_PowerState56get_MaximumTimeToActive___STATIC__mscorlibSystemTimeSpanER17CLR_RT_StackFrame
08073980 T _ZN63Library_spot_hardware_native_Microsoft_SPOT_Hardware_PowerState61get_WakeupEvents___STATIC__MicrosoftSPOTHardwareHardwareEventER17CLR_RT_StackFrame
0807391c T _ZN63Library_spot_hardware_native_Microsoft_SPOT_Hardware_PowerState62set_MaximumTimeToActive___STATIC__VOID__mscorlibSystemTimeSpanER17CLR_RT_StackFrame
080739ac T _ZN63Library_spot_hardware_native_Microsoft_SPOT_Hardware_PowerState67set_WakeupEvents___STATIC__VOID__MicrosoftSPOTHardwareHardwareEventER17CLR_RT_StackFrame
08073ab0 T _ZN63Library_spot_hardware_native_Microsoft_SPOT_Hardware_PowerState72InternalChangePowerLevel___STATIC__VOID__MicrosoftSPOTHardwarePowerLevelER17CLR_RT_StackFrame
080739f4 T _ZN63Library_spot_hardware_native_Microsoft_SPOT_Hardware_PowerState97InternalSleep___STATIC__VOID__MicrosoftSPOTHardwareSleepLevel__MicrosoftSPOTHardwareHardwareEventER17CLR_RT_StackFrame
08071308 T _ZN64Library_spot_hardware_native_Microsoft_SPOT_Hardware_AnalogInput12ReadRaw___I4ER17CLR_RT_StackFrame
080713ac T _ZN64Library_spot_hardware_native_Microsoft_SPOT_Hardware_AnalogInput66Uninitialize___STATIC__VOID__MicrosoftSPOTHardwareCpuAnalogChannelER17CLR_RT_StackFrame
0807134c T _ZN64Library_spot_hardware_native_Microsoft_SPOT_Hardware_AnalogInput68Initialize___STATIC__VOID__MicrosoftSPOTHardwareCpuAnalogChannel__I4ER17CLR_RT_StackFrame
0807471c T _ZN64Library_spot_hardware_native_Microsoft_SPOT_Hardware_LargeBuffer18CreateBufferHelperER16CLR_RT_HeapBlockj
08074814 T _ZN64Library_spot_hardware_native_Microsoft_SPOT_Hardware_LargeBuffer28InternalDestroyBuffer___VOIDER17CLR_RT_StackFrame
080747c4 T _ZN64Library_spot_hardware_native_Microsoft_SPOT_Hardware_LargeBuffer31InternalCreateBuffer___VOID__I4ER17CLR_RT_StackFrame
08070344 T _ZN64Library_spot_native_Microsoft_SPOT_Hardware_SystemInfo__SystemID20get_OEM___STATIC__U1ER17CLR_RT_StackFrame
0807039c T _ZN64Library_spot_native_Microsoft_SPOT_Hardware_SystemInfo__SystemID20get_SKU___STATIC__U2ER17CLR_RT_StackFrame
08070370 T _ZN64Library_spot_native_Microsoft_SPOT_Hardware_SystemInfo__SystemID22get_Model___STATIC__U1ER17CLR_RT_StackFrame
080713e0 T _ZN65Library_spot_hardware_native_Microsoft_SPOT_Hardware_AnalogOutput19WriteRaw___VOID__I4ER17CLR_RT_StackFrame
08071494 T _ZN65Library_spot_hardware_native_Microsoft_SPOT_Hardware_AnalogOutput72Uninitialize___STATIC__VOID__MicrosoftSPOTHardwareCpuAnalogOutputChannelER17CLR_RT_StackFrame
08071430 T _ZN65Library_spot_hardware_native_Microsoft_SPOT_Hardware_AnalogOutput74Initialize___STATIC__VOID__MicrosoftSPOTHardwareCpuAnalogOutputChannel__I4ER17CLR_RT_StackFrame
08073e78 T _ZN65Library_spot_hardware_native_Microsoft_SPOT_Hardware_TristatePort20get_Active___BOOLEANER17CLR_RT_StackFrame
08073fe0 T _ZN65Library_spot_hardware_native_Microsoft_SPOT_Hardware_TristatePort26get_GlitchFilter___BOOLEANER17CLR_RT_StackFrame
08073ec8 T _ZN65Library_spot_hardware_native_Microsoft_SPOT_Hardware_TristatePort26set_Active___VOID__BOOLEANER17CLR_RT_StackFrame
08073fb0 T _ZN65Library_spot_hardware_native_Microsoft_SPOT_Hardware_TristatePort52get_Resistor___MicrosoftSPOTHardwarePortResistorModeER17CLR_RT_StackFrame
08073fc8 T _ZN65Library_spot_hardware_native_Microsoft_SPOT_Hardware_TristatePort58set_Resistor___VOID__MicrosoftSPOTHardwarePortResistorModeER17CLR_RT_StackFrame
08072d14 T _ZN66Library_spot_hardware_native_Microsoft_SPOT_Hardware_InterruptPort21ClearInterrupt___VOIDER17CLR_RT_StackFrame
08072c24 T _ZN66Library_spot_hardware_native_Microsoft_SPOT_Hardware_InterruptPort22EnableInterrupt___VOIDER17CLR_RT_StackFrame
08072c9c T _ZN66Library_spot_hardware_native_Microsoft_SPOT_Hardware_InterruptPort23DisableInterrupt___VOIDER17CLR_RT_StackFrame
08072da8 T _ZN66Library_spot_hardware_native_Microsoft_SPOT_Hardware_InterruptPort54get_Interrupt___MicrosoftSPOTHardwarePortInterruptModeER17CLR_RT_StackFrame
08072dec T _ZN66Library_spot_hardware_native_Microsoft_SPOT_Hardware_InterruptPort60set_Interrupt___VOID__MicrosoftSPOTHardwarePortInterruptModeER17CLR_RT_StackFrame
08069654 T _ZN68Library_corlib_native_System_Runtime_CompilerServices_RuntimeHelpers35get_OffsetToStringData___STATIC__I4ER17CLR_RT_StackFrame
080695b8 T _ZN68Library_corlib_native_System_Runtime_CompilerServices_RuntimeHelpers39GetObjectValue___STATIC__OBJECT__OBJECTER17CLR_RT_StackFrame
08069634 T _ZN68Library_corlib_native_System_Runtime_CompilerServices_RuntimeHelpers59RunClassConstructor___STATIC__VOID__SystemRuntimeTypeHandleER17CLR_RT_StackFrame
080694cc T _ZN68Library_corlib_native_System_Runtime_CompilerServices_RuntimeHelpers69InitializeArray___STATIC__VOID__SystemArray__SystemRuntimeFieldHandleER17CLR_RT_StackFrame
080757b8 T _ZN68Library_spot_hardware_onewire_native_Microsoft_SPOT_Hardware_OneWire12Release___I4ER17CLR_RT_StackFrame
08075708 T _ZN68Library_spot_hardware_onewire_native_Microsoft_SPOT_Hardware_OneWire13ReadByte___I4ER17CLR_RT_StackFrame
08075760 T _ZN68Library_spot_hardware_onewire_native_Microsoft_SPOT_Hardware_OneWire14AcquireEx___I4ER17CLR_RT_StackFrame
08075548 T _ZN68Library_spot_hardware_onewire_native_Microsoft_SPOT_Hardware_OneWire15TouchReset___I4ER17CLR_RT_StackFrame
080755a0 T _ZN68Library_spot_hardware_onewire_native_Microsoft_SPOT_Hardware_OneWire17TouchBit___I4__I4ER17CLR_RT_StackFrame
08075618 T _ZN68Library_spot_hardware_onewire_native_Microsoft_SPOT_Hardware_OneWire18TouchByte___I4__I4ER17CLR_RT_StackFrame
08075690 T _ZN68Library_spot_hardware_onewire_native_Microsoft_SPOT_Hardware_OneWire18WriteByte___I4__I4ER17CLR_RT_StackFrame
08075940 T _ZN68Library_spot_hardware_onewire_native_Microsoft_SPOT_Hardware_OneWire35SerialNum___I4__SZARRAY_U1__BOOLEANER17CLR_RT_StackFrame
080758a8 T _ZN68Library_spot_hardware_onewire_native_Microsoft_SPOT_Hardware_OneWire37FindNextDevice___I4__BOOLEAN__BOOLEANER17CLR_RT_StackFrame
08075810 T _ZN68Library_spot_hardware_onewire_native_Microsoft_SPOT_Hardware_OneWire38FindFirstDevice___I4__BOOLEAN__BOOLEANER17CLR_RT_StackFrame
08072038 T _ZN69Library_spot_hardware_native_Microsoft_SPOT_Hardware_HardwareProvider107NativeGetSupportedResistorModes___MicrosoftSPOTHardwareCpuPinValidResistorMode__MicrosoftSPOTHardwareCpuPinER17CLR_RT_StackFrame
080723a4 T _ZN69Library_spot_hardware_native_Microsoft_SPOT_Hardware_HardwareProvider109NativeGetAnalogOutputPinForChannel___MicrosoftSPOTHardwareCpuPin__MicrosoftSPOTHardwareCpuAnalogOutputChannelER17CLR_RT_StackFrame
08072070 T _ZN69Library_spot_hardware_native_Microsoft_SPOT_Hardware_HardwareProvider109NativeGetSupportedInterruptModes___MicrosoftSPOTHardwareCpuPinValidInterruptMode__MicrosoftSPOTHardwareCpuPinER17CLR_RT_StackFrame
080723f4 T _ZN69Library_spot_hardware_native_Microsoft_SPOT_Hardware_HardwareProvider113NativeGetAvailableAnalogOutputPrecisionInBitsForChannel___SZARRAY_I4__MicrosoftSPOTHardwareCpuAnalogOutputChannelER17CLR_RT_StackFrame
08071dc8 T _ZN69Library_spot_hardware_native_Microsoft_SPOT_Hardware_HardwareProvider163NativeGetSpiPins___VOID__MicrosoftSPOTHardwareSPISPImodule__BYREF_MicrosoftSPOTHardwareCpuPin__BYREF_MicrosoftSPOTHardwareCpuPin__BYREF_MicrosoftSPOTHardwareCpuPinER17CLR_RT_StackFrame
08071a78 T _ZN69Library_spot_hardware_native_Microsoft_SPOT_Hardware_HardwareProvider170NativeGetSerialPins___VOID__I4__BYREF_MicrosoftSPOTHardwareCpuPin__BYREF_MicrosoftSPOTHardwareCpuPin__BYREF_MicrosoftSPOTHardwareCpuPin__BYREF_MicrosoftSPOTHardwareCpuPinER17CLR_RT_StackFrame
08071f90 T _ZN69Library_spot_hardware_native_Microsoft_SPOT_Hardware_HardwareProvider23NativeGetPinsCount___I4ER17CLR_RT_StackFrame
08071ed0 T _ZN69Library_spot_hardware_native_Microsoft_SPOT_Hardware_HardwareProvider27NativeGetSpiPortsCount___I4ER17CLR_RT_StackFrame
080721e0 T _ZN69Library_spot_hardware_native_Microsoft_SPOT_Hardware_HardwareProvider30NativeGetPWMChannelsCount___I4ER17CLR_RT_StackFrame
08071bc4 T _ZN69Library_spot_hardware_native_Microsoft_SPOT_Hardware_HardwareProvider30NativeGetSerialPortsCount___I4ER17CLR_RT_StackFrame
08072244 T _ZN69Library_spot_hardware_native_Microsoft_SPOT_Hardware_HardwareProvider33NativeGetAnalogChannelsCount___I4ER17CLR_RT_StackFrame
08072380 T _ZN69Library_spot_hardware_native_Microsoft_SPOT_Hardware_HardwareProvider39NativeGetAnalogOutputChannelsCount___I4ER17CLR_RT_StackFrame
08071be8 T _ZN69Library_spot_hardware_native_Microsoft_SPOT_Hardware_HardwareProvider47NativeSupportsNonStandardBaudRate___BOOLEAN__I4ER17CLR_RT_StackFrame
08071d08 T _ZN69Library_spot_hardware_native_Microsoft_SPOT_Hardware_HardwareProvider49NativeIsSupportedBaudRate___BOOLEAN__I4__BYREF_U4ER17CLR_RT_StackFrame
08071c3c T _ZN69Library_spot_hardware_native_Microsoft_SPOT_Hardware_HardwareProvider56NativeGetBaudRateBoundary___VOID__I4__BYREF_U4__BYREF_U4ER17CLR_RT_StackFrame
08071fb4 T _ZN69Library_spot_hardware_native_Microsoft_SPOT_Hardware_HardwareProvider65NativeGetPinsMap___VOID__SZARRAY_MicrosoftSPOTHardwareCpuPinUsageER17CLR_RT_StackFrame
080720e0 T _ZN69Library_spot_hardware_native_Microsoft_SPOT_Hardware_HardwareProvider66NativeGetLCDMetrics___VOID__BYREF_I4__BYREF_I4__BYREF_I4__BYREF_I4ER17CLR_RT_StackFrame
080720a8 T _ZN69Library_spot_hardware_native_Microsoft_SPOT_Hardware_HardwareProvider78NativeGetButtonPins___MicrosoftSPOTHardwareCpuPin__MicrosoftSPOTHardwareButtonER17CLR_RT_StackFrame
08072000 T _ZN69Library_spot_hardware_native_Microsoft_SPOT_Hardware_HardwareProvider81NativeGetPinUsage___MicrosoftSPOTHardwareCpuPinUsage__MicrosoftSPOTHardwareCpuPinER17CLR_RT_StackFrame
08072204 T _ZN69Library_spot_hardware_native_Microsoft_SPOT_Hardware_HardwareProvider91NativeGetPWMPinForChannel___MicrosoftSPOTHardwareCpuPin__MicrosoftSPOTHardwareCpuPWMChannelER17CLR_RT_StackFrame
08071ef4 T _ZN69Library_spot_hardware_native_Microsoft_SPOT_Hardware_HardwareProvider93NativeGetI2CPins___VOID__BYREF_MicrosoftSPOTHardwareCpuPin__BYREF_MicrosoftSPOTHardwareCpuPinER17CLR_RT_StackFrame
080722b8 T _ZN69Library_spot_hardware_native_Microsoft_SPOT_Hardware_HardwareProvider95NativeGetAvailablePrecisionInBitsForChannel___SZARRAY_I4__MicrosoftSPOTHardwareCpuAnalogChannelER17CLR_RT_StackFrame
08072268 T _ZN69Library_spot_hardware_native_Microsoft_SPOT_Hardware_HardwareProvider97NativeGetAnalogPinForChannel___MicrosoftSPOTHardwareCpuPin__MicrosoftSPOTHardwareCpuAnalogChannelER17CLR_RT_StackFrame
2000339a B _ZN6MAC_ID13Unique_Mac_IDE
0806f1c0 T _ZN6System4Math13IEEERemainderEdd
0806f178 T _ZN6System4Math3CosEd
0806f1ec T _ZN6System4Math3ExpEd
0806f260 T _ZN6System4Math3LogEd
0806f2a8 T _ZN6System4Math3PowEdd
0806f2d4 T _ZN6System4Math3SinEd
0806f340 T _ZN6System4Math3TanEd
0806f0bc T _ZN6System4Math4AcosEd
0806f0e0 T _ZN6System4Math4AsinEd
0806f104 T _ZN6System4Math4AtanEd
0806f19c T _ZN6System4Math4CoshEd
0806f234 T _ZN6System4Math4FmodEdd
0806f2f8 T _ZN6System4Math4SinhEd
0806f31c T _ZN6System4Math4SqrtEd
0806f364 T _ZN6System4Math4TanhEd
0806f128 T _ZN6System4Math5Atan2Edd
0806f210 T _ZN6System4Math5FloorEd
0806f284 T _ZN6System4Math5Log10Ed
0806f154 T _ZN6System4Math7CeilingEd
0806f388 T _ZN6System4Math8TruncateEdRd
0806ef84 T _ZN6System6Double10IsInfinityEd
0806eff0 T _ZN6System6Double18IsNegativeInfinityEd
0806f05c T _ZN6System6Double18IsPositiveInfinityEd
0806efc8 T _ZN6System6Double5IsNaNEd
0806edfc T _ZN6System6Double9CompareToEdd
080770ac T _ZN71Library_Samraksh_eMote_Net_Samraksh_eMote_Net_Radio_Radio_802_15_4_Base24GetRadioAddress___U2__U1ER17CLR_RT_StackFrame
08077128 T _ZN71Library_Samraksh_eMote_Net_Samraksh_eMote_Net_Radio_Radio_802_15_4_Base33SetRadioAddress___BOOLEAN__U1__U2ER17CLR_RT_StackFrame
080775bc T _ZN71Library_Samraksh_eMote_Net_Samraksh_eMote_Net_Radio_Radio_802_15_4_Base35ClearChannelAssesment___BOOLEAN__U1ER17CLR_RT_StackFrame
0807763c T _ZN71Library_Samraksh_eMote_Net_Samraksh_eMote_Net_Radio_Radio_802_15_4_Base39ClearChannelAssesment___BOOLEAN__U1__U2ER17CLR_RT_StackFrame
080771c4 T _ZN71Library_Samraksh_eMote_Net_Samraksh_eMote_Net_Radio_Radio_802_15_4_Base43TurnOnRx___SamraksheMoteNetDeviceStatus__U1ER17CLR_RT_StackFrame
08077054 T _ZN71Library_Samraksh_eMote_Net_Samraksh_eMote_Net_Radio_Radio_802_15_4_Base43UnInitialize___SamraksheMoteNetDeviceStatusER17CLR_RT_StackFrame
0807723c T _ZN71Library_Samraksh_eMote_Net_Samraksh_eMote_Net_Radio_Radio_802_15_4_Base44Sleep___SamraksheMoteNetDeviceStatus__U1__U1ER17CLR_RT_StackFrame
080776d8 T _ZN71Library_Samraksh_eMote_Net_Samraksh_eMote_Net_Radio_Radio_802_15_4_Base44TurnOffRx___SamraksheMoteNetDeviceStatus__U1ER17CLR_RT_StackFrame
08077378 T _ZN71Library_Samraksh_eMote_Net_Samraksh_eMote_Net_Radio_Radio_802_15_4_Base48SendStrobe___SamraksheMoteNetNetOpStatus__U1__U2ER17CLR_RT_StackFrame
080772d0 T _ZN71Library_Samraksh_eMote_Net_Samraksh_eMote_Net_Radio_Radio_802_15_4_Base53PreLoad___SamraksheMoteNetNetOpStatus__SZARRAY_U1__U2ER17CLR_RT_StackFrame
0807740c T _ZN71Library_Samraksh_eMote_Net_Samraksh_eMote_Net_Radio_Radio_802_15_4_Base54Send___SamraksheMoteNetNetOpStatus__U1__SZARRAY_U1__U2ER17CLR_RT_StackFrame
080774d4 T _ZN71Library_Samraksh_eMote_Net_Samraksh_eMote_Net_Radio_Radio_802_15_4_Base69SendTimeStamped___SamraksheMoteNetNetOpStatus__U1__SZARRAY_U1__U2__U4ER17CLR_RT_StackFrame
08073d6c T _ZN71Library_spot_hardware_native_Microsoft_SPOT_Hardware_SPI__Configuration16GetInitialConfigER16CLR_RT_HeapBlockR17SPI_CONFIGURATION
080716a8 T _ZN74Library_spot_hardware_native_Microsoft_SPOT_Hardware_Battery__ChargerModel12_ctor___VOIDER17CLR_RT_StackFrame
0807485c T _ZN74Library_spot_hardware_native_Microsoft_SPOT_Hardware_LargeBufferMarshaller54MarshalBuffer___VOID__MicrosoftSPOTHardwareLargeBufferER17CLR_RT_StackFrame
080748e4 T _ZN74Library_spot_hardware_native_Microsoft_SPOT_Hardware_LargeBufferMarshaller62UnMarshalBuffer___VOID__BYREF_MicrosoftSPOTHardwareLargeBufferER17CLR_RT_StackFrame
08074360 T _ZN74Library_spot_hardware_native_Microsoft_SPOT_Hardware_NativeEventDispatcher18GetEventDispatcherER17CLR_RT_StackFrame
0807432c T _ZN74Library_spot_hardware_native_Microsoft_SPOT_Hardware_NativeEventDispatcher18GetEventDispatcherER17CLR_RT_StackFrameRP38CLR_RT_HeapBlock_NativeEventDispatcher
08074308 T _ZN74Library_spot_hardware_native_Microsoft_SPOT_Hardware_NativeEventDispatcher21GetEventDispReferenceER17CLR_RT_StackFrame
08073ff8 T _ZN74Library_spot_hardware_native_Microsoft_SPOT_Hardware_NativeEventDispatcher22EnableInterrupt___VOIDER17CLR_RT_StackFrame
08074094 T _ZN74Library_spot_hardware_native_Microsoft_SPOT_Hardware_NativeEventDispatcher23DisableInterrupt___VOIDER17CLR_RT_StackFrame
08074128 T _ZN74Library_spot_hardware_native_Microsoft_SPOT_Hardware_NativeEventDispatcher23Dispose___VOID__BOOLEANER17CLR_RT_StackFrame
0807419c T _ZN74Library_spot_hardware_native_Microsoft_SPOT_Hardware_NativeEventDispatcher24_ctor___VOID__STRING__U8ER17CLR_RT_StackFrame
080728a0 T _ZN77Library_spot_hardware_native_Microsoft_SPOT_Hardware_I2CDevice__Configuration16GetInitialConfigER16CLR_RT_HeapBlockR22I2C_USER_CONFIGURATION
0802b054 T _ZN7csmaMAC10InitializeEP15MACEventHandlerhhhP9MACConfig
0802b830 T _ZN7csmaMAC11SendToRadioEv
0802b2bc T _ZN7csmaMAC12UnInitializeEv
0802a330 W _ZN7csmaMAC13GetMaxPayloadEv
0802a348 W _ZN7csmaMAC13SetMaxPayloadEt
0802ba44 T _ZN7csmaMAC14ReceiveHandlerEP7MessageI19IEEE802_15_4_HeaderLt95E19IEEE802_15_4_Footer21IEEE802_15_4_MetadataEi
0802bc8c T _ZN7csmaMAC14SendAckHandlerEPvi11NetOpStatush
0802b29c T _ZN7csmaMAC15GetRadioAddressEv
0802b358 T _ZN7csmaMAC15SendTimeStampedEthPvij
0802b274 T _ZN7csmaMAC15SetRadioAddressEt
0802b78c T _ZN7csmaMAC19UpdateNeighborTableEv
0802bc70 T _ZN7csmaMAC21RadioInterruptHandlerE14RadioInterruptPv
0802b578 T _ZN7csmaMAC4SendEthPvi
0802b7f0 T _ZN7csmaMAC6ResendEPvi
0802afb0 T _ZN7csmaMAC9SendHelloEv
0802b008 T _ZN7csmaMAC9SetConfigEP9MACConfig
0802be58 W _ZN7MessageI19IEEE802_15_4_HeaderLt95E19IEEE802_15_4_Footer21IEEE802_15_4_MetadataE10GetPayloadEv
0802be40 W _ZN7MessageI19IEEE802_15_4_HeaderLt95E19IEEE802_15_4_Footer21IEEE802_15_4_MetadataE11GetMetaDataEv
0802bf6c W _ZN7MessageI19IEEE802_15_4_HeaderLt95E19IEEE802_15_4_Footer21IEEE802_15_4_MetadataE14GetMessageSizeEv
080310c8 W _ZN7MessageI19IEEE802_15_4_HeaderLt95E19IEEE802_15_4_Footer21IEEE802_15_4_MetadataE14GetPayloadSizeEv
080310e0 W _ZN7MessageI19IEEE802_15_4_HeaderLt95E19IEEE802_15_4_Footer21IEEE802_15_4_MetadataE9GetFooterEv
0802be10 W _ZN7MessageI19IEEE802_15_4_HeaderLt95E19IEEE802_15_4_Footer21IEEE802_15_4_MetadataE9GetHeaderEv
08070f50 T _ZN81Library_spot_native_System_Security_Cryptography_X509Certificates_X509Certificate139ParseCertificate___STATIC__VOID__SZARRAY_U1__STRING__BYREF_STRING__BYREF_STRING__BYREF_mscorlibSystemDateTime__BYREF_mscorlibSystemDateTimeER17CLR_RT_StackFrame
0803061c T _ZN8OMACType10InitializeEP15MACEventHandlerhhhP9MACConfig
08030888 T _ZN8OMACType12UnInitializeEv
08030418 W _ZN8OMACType13GetMaxPayloadEv
08030430 W _ZN8OMACType13SetMaxPayloadEt
080308b8 T _ZN8OMACType14ReceiveHandlerEP7MessageI19IEEE802_15_4_HeaderLt95E19IEEE802_15_4_Footer21IEEE802_15_4_MetadataEi
0802cbc0 W _ZN8OMACType15GetRadioAddressEv
08030dec T _ZN8OMACType15SendTimeStampedEthPvij
0802cb98 W _ZN8OMACType15SetRadioAddressEt
080310a8 T _ZN8OMACType19UpdateNeighborTableEv
08030e44 T _ZN8OMACType20PrepareMessageBufferEthPvi
08030d9c T _ZN8OMACType4SendEthPvi
0803044c W _ZN8OMACType7SetMyIDEt
080305d4 T _ZN8OMACType9SetConfigEP9MACConfig
0807ac60 T _ZN8Samraksh5eMote3DSP10Statistics3SumEP16CLR_RT_HeapBlock17CLR_RT_TypedArrayIhERi
0807acc0 T _ZN8Samraksh5eMote3DSP10Statistics3SumEP16CLR_RT_HeapBlock17CLR_RT_TypedArrayIjERi
0807ac90 T _ZN8Samraksh5eMote3DSP10Statistics3SumEP16CLR_RT_HeapBlock17CLR_RT_TypedArrayItERi
0807acf0 T _ZN8Samraksh5eMote3DSP10Statistics3SumEP16CLR_RT_HeapBlock17CLR_RT_TypedArrayIyERi
0807adbc T _ZN8Samraksh5eMote3DSP10Statistics4ModeEP16CLR_RT_HeapBlock17CLR_RT_TypedArrayIhERi
0807ae04 T _ZN8Samraksh5eMote3DSP10Statistics4ModeEP16CLR_RT_HeapBlock17CLR_RT_TypedArrayIjERi
0807ade0 T _ZN8Samraksh5eMote3DSP10Statistics4ModeEP16CLR_RT_HeapBlock17CLR_RT_TypedArrayItERi
0807ae28 T _ZN8Samraksh5eMote3DSP10Statistics4ModeEP16CLR_RT_HeapBlock17CLR_RT_TypedArrayIyERi
0807ad20 T _ZN8Samraksh5eMote3DSP10Statistics6MedianEP16CLR_RT_HeapBlock17CLR_RT_TypedArrayIhERi
0807ad68 T _ZN8Samraksh5eMote3DSP10Statistics6MedianEP16CLR_RT_HeapBlock17CLR_RT_TypedArrayIjERi
0807ad44 T _ZN8Samraksh5eMote3DSP10Statistics6MedianEP16CLR_RT_HeapBlock17CLR_RT_TypedArrayItERi
0807ad8c T _ZN8Samraksh5eMote3DSP10Statistics6MedianEP16CLR_RT_HeapBlock17CLR_RT_TypedArrayIyERi
0807ae58 T _ZN8Samraksh5eMote3DSP10Statistics8VarianceEP16CLR_RT_HeapBlock17CLR_RT_TypedArrayIhERi
0807aeb8 T _ZN8Samraksh5eMote3DSP10Statistics8VarianceEP16CLR_RT_HeapBlock17CLR_RT_TypedArrayIjERi
0807ae88 T _ZN8Samraksh5eMote3DSP10Statistics8VarianceEP16CLR_RT_HeapBlock17CLR_RT_TypedArrayItERi
0807aee8 T _ZN8Samraksh5eMote3DSP10Statistics8VarianceEP16CLR_RT_HeapBlock17CLR_RT_TypedArrayIyERi
0807af18 T _ZN8Samraksh5eMote3DSP10Transforms3FFTEP16CLR_RT_HeapBlock17CLR_RT_TypedArrayIhES6_tRi
0807af68 T _ZN8Samraksh5eMote3DSP10Transforms3FFTEP16CLR_RT_HeapBlock17CLR_RT_TypedArrayIjES6_tRi
0807af90 T _ZN8Samraksh5eMote3DSP10Transforms3FFTEP16CLR_RT_HeapBlock17CLR_RT_TypedArrayIsES6_tRi
0807af40 T _ZN8Samraksh5eMote3DSP10Transforms3FFTEP16CLR_RT_HeapBlock17CLR_RT_TypedArrayItES6_tRi
0807b020 T _ZN8Samraksh5eMote3DSP10Transforms4IFFTEP16CLR_RT_HeapBlock17CLR_RT_TypedArrayIhES6_tRi
0807b070 T _ZN8Samraksh5eMote3DSP10Transforms4IFFTEP16CLR_RT_HeapBlock17CLR_RT_TypedArrayIjES6_tRi
0807b048 T _ZN8Samraksh5eMote3DSP10Transforms4IFFTEP16CLR_RT_HeapBlock17CLR_RT_TypedArrayItES6_tRi
0807a898 T _ZN8Samraksh5eMote3Net5Radio19Radio_802_15_4_Base10SendStrobeEP16CLR_RT_HeapBlockhtRi
0807a780 T _ZN8Samraksh5eMote3Net5Radio19Radio_802_15_4_Base12UnInitializeEP16CLR_RT_HeapBlockRi
0807a79c T _ZN8Samraksh5eMote3Net5Radio19Radio_802_15_4_Base15GetRadioAddressEP16CLR_RT_HeapBlockhRi
0807a914 T _ZN8Samraksh5eMote3Net5Radio19Radio_802_15_4_Base15SendTimeStampedEP16CLR_RT_HeapBlockh17CLR_RT_TypedArrayIhEtjRi
0807a7c0 T _ZN8Samraksh5eMote3Net5Radio19Radio_802_15_4_Base15SetRadioAddressEP16CLR_RT_HeapBlockhtRi
0807a958 T _ZN8Samraksh5eMote3Net5Radio19Radio_802_15_4_Base21ClearChannelAssesmentEP16CLR_RT_HeapBlockhRi
0807a988 T _ZN8Samraksh5eMote3Net5Radio19Radio_802_15_4_Base21ClearChannelAssesmentEP16CLR_RT_HeapBlockhtRi
0807a8d0 T _ZN8Samraksh5eMote3Net5Radio19Radio_802_15_4_Base4SendEP16CLR_RT_HeapBlockh17CLR_RT_TypedArrayIhEtRi
0807a838 T _ZN8Samraksh5eMote3Net5Radio19Radio_802_15_4_Base5SleepEP16CLR_RT_HeapBlockhhRi
0807a864 T _ZN8Samraksh5eMote3Net5Radio19Radio_802_15_4_Base7PreLoadEP16CLR_RT_HeapBlock17CLR_RT_TypedArrayIhEtRi
0807a7f0 T _ZN8Samraksh5eMote3Net5Radio19Radio_802_15_4_Base8TurnOnRxEP16CLR_RT_HeapBlockhRi
0807a814 T _ZN8Samraksh5eMote3Net5Radio19Radio_802_15_4_Base9TurnOffRxEP16CLR_RT_HeapBlockhRi
0807a1e0 T _ZN8Samraksh5eMote3Net7MACBase10GetMACTypeEP16CLR_RT_HeapBlockRi
0807a51c T _ZN8Samraksh5eMote3Net7MACBase10SetChannelEP16CLR_RT_HeapBlockhiRi
0807a4f4 T _ZN8Samraksh5eMote3Net7MACBase10SetTxPowerEP16CLR_RT_HeapBlockhiRi
0807a17c T _ZN8Samraksh5eMote3Net7MACBase12RemovePacketEP16CLR_RT_HeapBlock17CLR_RT_TypedArrayIhERi
0807a4cc T _ZN8Samraksh5eMote3Net7MACBase12SetRadioTypeEP16CLR_RT_HeapBlockhRi
0807a240 T _ZN8Samraksh5eMote3Net7MACBase12UnInitializeEP16CLR_RT_HeapBlockRi
2000cbb4 B _ZN8Samraksh5eMote3Net7MACBase13Event_HandlerE
0807a25c T _ZN8Samraksh5eMote3Net7MACBase13GetNextPacketEP16CLR_RT_HeapBlock17CLR_RT_TypedArrayIhERi
0807a224 T _ZN8Samraksh5eMote3Net7MACBase15GetRadioAddressEP16CLR_RT_HeapBlockRi
0807a680 T _ZN8Samraksh5eMote3Net7MACBase15SendTimeStampedEP16CLR_RT_HeapBlockt17CLR_RT_TypedArrayIhEttjRi
0807a60c T _ZN8Samraksh5eMote3Net7MACBase15SendTimeStampedEP16CLR_RT_HeapBlockt17CLR_RT_TypedArrayIhEttRi
0807a1fc T _ZN8Samraksh5eMote3Net7MACBase15SetRadioAddressEP16CLR_RT_HeapBlocktRi
0807a334 T _ZN8Samraksh5eMote3Net7MACBase18InternalInitializeEP16CLR_RT_HeapBlock17CLR_RT_TypedArrayIhEhRi
0807a570 T _ZN8Samraksh5eMote3Net7MACBase19GetNeighborInternalEP16CLR_RT_HeapBlockt17CLR_RT_TypedArrayIhERi
0807a28c T _ZN8Samraksh5eMote3Net7MACBase19InternalReConfigureEP16CLR_RT_HeapBlock17CLR_RT_TypedArrayIhERi
0807a544 T _ZN8Samraksh5eMote3Net7MACBase23GetNeighborListInternalEP16CLR_RT_HeapBlock17CLR_RT_TypedArrayItERi
0807a1c0 T _ZN8Samraksh5eMote3Net7MACBase26GetPendingPacketCount_SendEP16CLR_RT_HeapBlockRi
0807a1a0 T _ZN8Samraksh5eMote3Net7MACBase29GetPendingPacketCount_ReceiveEP16CLR_RT_HeapBlockRi
0807a5a4 T _ZN8Samraksh5eMote3Net7MACBase4SendEP16CLR_RT_HeapBlockt17CLR_RT_TypedArrayIhEttRi
2000cbc1 B _ZN8Samraksh5eMote3Net7MACBase7MyAppIDE
080789c8 T _ZN8Samraksh5eMote6DotNow10SDInternal12InternalReadE17CLR_RT_TypedArrayIhEttjRi
08078950 T _ZN8Samraksh5eMote6DotNow10SDInternal13InternalWriteE17CLR_RT_TypedArrayIhEttjRi
08078928 T _ZN8Samraksh5eMote6DotNow10SDInternal18InternalInitializeERi
080779e0 T _ZN8Samraksh5eMote6DotNow11ADCInternal12StopSamplingERi
080779ac T _ZN8Samraksh5eMote6DotNow11ADCInternal15DualChannelReadE17CLR_RT_TypedArrayItERi
08077844 T _ZN8Samraksh5eMote6DotNow11ADCInternal18ConfigureBatchModeE17CLR_RT_TypedArrayItEijjRi
08077884 T _ZN8Samraksh5eMote6DotNow11ADCInternal23ConfigureContinuousModeE17CLR_RT_TypedArrayItEijjRi
08077914 T _ZN8Samraksh5eMote6DotNow11ADCInternal29ConfigureBatchModeDualChannelE17CLR_RT_TypedArrayItES4_jjRi
08077988 T _ZN8Samraksh5eMote6DotNow11ADCInternal34ConfigureBatchModeWithThresholdingE17CLR_RT_TypedArrayItEijjjRi
080778c4 T _ZN8Samraksh5eMote6DotNow11ADCInternal34ConfigureContinuousModeDualChannelE17CLR_RT_TypedArrayItES4_jjRi
08077964 T _ZN8Samraksh5eMote6DotNow11ADCInternal39ConfigureContinuousModeWithThresholdingE17CLR_RT_TypedArrayItEijjjRi
080777b8 T _ZN8Samraksh5eMote6DotNow11ADCInternal4InitEiRi
08077818 T _ZN8Samraksh5eMote6DotNow11ADCInternal4ReadEiRi
080777ec T _ZN8Samraksh5eMote6DotNow11ADCInternal6UninitERi
0807ac24 T _ZN8Samraksh5eMote6DotNow3NOR12InternalReadE17CLR_RT_TypedArrayItEjtRi
0807ab94 T _ZN8Samraksh5eMote6DotNow3NOR13InternalWriteE17CLR_RT_TypedArrayItEjtRi
0807ac00 T _ZN8Samraksh5eMote6DotNow3NOR13InternalWriteE17CLR_RT_TypedArrayItEjttRi
0807ab70 T _ZN8Samraksh5eMote6DotNow3NOR18InternalInitializeERi
0807a9b8 T _ZN8Samraksh5eMote6DotNow8EmoteLCD10InitializeEP16CLR_RT_HeapBlockRi
0807a9e0 T _ZN8Samraksh5eMote6DotNow8EmoteLCD12UninitializeEP16CLR_RT_HeapBlockRi
0807aae0 T _ZN8Samraksh5eMote6DotNow8EmoteLCD13WriteRawBytesEP16CLR_RT_HeapBlockiiiiRi
0807ab14 T _ZN8Samraksh5eMote6DotNow8EmoteLCD5BlinkEP16CLR_RT_HeapBlockiRi
0807ab40 T _ZN8Samraksh5eMote6DotNow8EmoteLCD5ClearEP16CLR_RT_HeapBlockRi
0807aa3c T _ZN8Samraksh5eMote6DotNow8EmoteLCD5SetDPEP16CLR_RT_HeapBlockaaaaRi
0807aa08 T _ZN8Samraksh5eMote6DotNow8EmoteLCD5WriteEP16CLR_RT_HeapBlockiiiiRi
0807aab0 T _ZN8Samraksh5eMote6DotNow8EmoteLCD6WriteNEP16CLR_RT_HeapBlockiiRi
080425e4 T _ZN8Samraksh5eMote8RealTime5Timer17GenerateInterruptEP16CLR_RT_HeapBlockRi
080425c0 T _ZN8Samraksh5eMote8RealTime5Timer6ChangeEP16CLR_RT_HeapBlockjjRi
080425ac T _ZN8Samraksh5eMote8RealTime5Timer7DisposeEP16CLR_RT_HeapBlockRi
080204b8 W _ZN8Settings10InitializeE12CLR_SETTINGS
0802053c W _ZN8Settings12LoadAssemblyEPK19CLR_RECORD_ASSEMBLYRP15CLR_RT_Assembly
080207a0 W _ZN8Settings19LoadKnownAssembliesEPcS0_
080209f8 W _ZN8Settings24LoadDeploymentAssembliesEj
08020874 W _ZN8Settings25ContiguousBlockAssembliesE18BlockStorageStreamj
080206d8 W _ZN8Settings29CheckKnownAssembliesForNonXIPEPPcS1_
08020628 W _ZN8Settings4LoadEv
08020a90 W _ZN8Settings7CleanupEv
08026c0c T _ZN9CLR_Debug4EmitEPKci
08026bf4 T _ZN9CLR_Debug5FlushEv
08026e5c T _ZN9CLR_Debug6PrintfEPKcz
08026ddc T _ZN9CLR_Debug7PrintfVEPKcSt9__va_list
08020cf8 W _ZN9MFVersion4InitERS_tttt
08075a2c T _ZN9Microsoft4SPOT8Hardware7OneWire10TouchResetEP16CLR_RT_HeapBlockRi
08075bd0 T _ZN9Microsoft4SPOT8Hardware7OneWire4NextEP16CLR_RT_HeapBlockaaRi
08075b8c T _ZN9Microsoft4SPOT8Hardware7OneWire5FirstEP16CLR_RT_HeapBlockaaRi
08075b60 T _ZN9Microsoft4SPOT8Hardware7OneWire7ReleaseEP16CLR_RT_HeapBlockRi
08075a10 W _ZN9Microsoft4SPOT8Hardware7OneWire8Get__pinEP16CLR_RT_HeapBlock
08075af8 T _ZN9Microsoft4SPOT8Hardware7OneWire8ReadByteEP16CLR_RT_HeapBlockRi
08075a5c T _ZN9Microsoft4SPOT8Hardware7OneWire8TouchBitEP16CLR_RT_HeapBlockiRi
08075b28 T _ZN9Microsoft4SPOT8Hardware7OneWire9AcquireExEP16CLR_RT_HeapBlockRi
08075c14 T _ZN9Microsoft4SPOT8Hardware7OneWire9SerialNumEP16CLR_RT_HeapBlock17CLR_RT_TypedArrayIhEaRi
08075a90 T _ZN9Microsoft4SPOT8Hardware7OneWire9TouchByteEP16CLR_RT_HeapBlockiRi
08075ac4 T _ZN9Microsoft4SPOT8Hardware7OneWire9WriteByteEP16CLR_RT_HeapBlockiRi
08020d88 W _ZNK10BlockRange12IsDeploymentEv
08020dac W _ZNK10BlockRange13GetBlockCountEv
08028280 W _ZNK10BlockRange13GetBlockUsageEv
08020d54 W _ZNK10BlockRange8IsConfigEv
0803af74 W _ZNK12HAL_CALLBACK13GetEntryPointEv
0803af8c W _ZNK12HAL_CALLBACK7ExecuteEv
0805efdc T _ZNK13CLR_RECORD_EH8GetTokenEv
08048350 W _ZNK13CLR_RT_Thread10FirstFrameEv
08021634 W _ZNK13CLR_RT_Thread12CurrentFrameEv
080483c0 W _ZNK13CLR_RT_Thread15GetQuantumDebitEv
08048370 W _ZNK13CLR_RT_Thread16CurrentAppDomainEv
08021654 W _ZNK13CLR_RT_Thread16CurrentSubThreadEv
08021674 W _ZNK13CLR_RT_Thread17GetThreadPriorityEv
080483a0 W _ZNK13CLR_RT_Thread19GetExecutionCounterEv
08028e20 T _ZNK15BlockDeviceInfo17FindForBlockUsageEjRjS0_S0_
08028e5c T _ZNK15BlockDeviceInfo18FindNextUsageBlockEjRjS0_S0_
08028d4c T _ZNK15BlockDeviceInfo21FindRegionFromAddressEjRjS0_
08020dcc W _ZNK15BlockRegionInfo12BlockAddressEj
08020df4 W _ZNK15BlockRegionInfo15OffsetFromBlockEj
08020e20 W _ZNK15BlockRegionInfo21BlockIndexFromAddressEj
0805f108 T _ZNK15CLR_RT_Assembly14IsSameAssemblyERKS_
080213e4 W _ZNK16CLR_RT_HeapBlock10ArrayIndexEv
080478a4 W _ZNK16CLR_RT_HeapBlock10ObjectLockEv
08047814 W _ZNK16CLR_RT_HeapBlock10SameHeaderERKS_
08021384 W _ZNK16CLR_RT_HeapBlock10StringTextEv
080213fc W _ZNK16CLR_RT_HeapBlock11DereferenceEv
080212f0 W _ZNK16CLR_RT_HeapBlock12IsAValueTypeEv
080474fc W _ZNK16CLR_RT_HeapBlock13IsForcedAliveEv
08026aac W _ZNK16CLR_RT_HeapBlock13RecoverStringEv
08047850 W _ZNK16CLR_RT_HeapBlock14DataByRefConstEv
0804788c W _ZNK16CLR_RT_HeapBlock14StringAssemblyEv
08021414 W _ZNK16CLR_RT_HeapBlock16DereferenceArrayEv
0804792c W _ZNK16CLR_RT_HeapBlock17DereferenceStringEv
0802136c W _ZNK16CLR_RT_HeapBlock17NumericByRefConstEv
08021270 W _ZNK16CLR_RT_HeapBlock18Debug_CheckPointerEv
08047764 W _ZNK16CLR_RT_HeapBlock18IsTransparentProxyEv
0802142c W _ZNK16CLR_RT_HeapBlock19DereferenceDelegateEv
080213b4 W _ZNK16CLR_RT_HeapBlock19ReflectionDataConstEv
080636b4 W _ZNK16CLR_RT_HeapBlock21DereferenceBinaryBlobEv
0804ff6c T _ZNK16CLR_RT_HeapBlock22GetAtomicDataUsedBytesEv
080477bc W _ZNK16CLR_RT_HeapBlock22IsAReferenceOfThisTypeE12CLR_DataType
08047944 W _ZNK16CLR_RT_HeapBlock23DereferenceDelegateListEv
080478d8 W _ZNK16CLR_RT_HeapBlock24BinaryBlobMarkingHandlerEv
080513b4 T _ZNK16CLR_RT_HeapBlock24TransparentProxyValidateEv
08047734 W _ZNK16CLR_RT_HeapBlock25TransparentProxyAppDomainEv
080478f0 W _ZNK16CLR_RT_HeapBlock27BinaryBlobRelocationHandlerEv
080472e0 W _ZNK16CLR_RT_HeapBlock27CLR_RT_HeapBlock_AtomicData7Numeric2R8cvdEv
08021160 W _ZNK16CLR_RT_HeapBlock27CLR_RT_HeapBlock_AtomicData7Numeric2S8cvxEv
08046e10 W _ZNK16CLR_RT_HeapBlock27CLR_RT_HeapBlock_AtomicData7Numeric2U8cvyEv
0804774c W _ZNK16CLR_RT_HeapBlock27TransparentProxyDereferenceEv
080213cc W _ZNK16CLR_RT_HeapBlock5ArrayEv
0804fcb0 T _ZNK16CLR_RT_HeapBlock6IsZeroEv
080474c4 W _ZNK16CLR_RT_HeapBlock7IsAliveEv
08021284 W _ZNK16CLR_RT_HeapBlock7IsBoxedEv
080474e0 W _ZNK16CLR_RT_HeapBlock7IsEventEv
080211f4 W _ZNK16CLR_RT_HeapBlock8DataSizeEv
080211c4 W _ZNK16CLR_RT_HeapBlock8DataTypeEv
08047518 W _ZNK16CLR_RT_HeapBlock8IsPinnedEv
080211dc W _ZNK16CLR_RT_HeapBlock9DataFlagsEv
08021244 W _ZNK16CLR_RT_HeapBlock9IsFlagSetEh
0802139c W _ZNK16CLR_RT_HeapBlock9ObjectClsEv
0803afb4 W _ZNK16HAL_CONTINUATION13GetEntryPointEv
0803afd0 W _ZNK16HAL_CONTINUATION7ExecuteEv
08048030 W _ZNK17CLR_RT_StackFrame4Arg0Ev
08048048 W _ZNK17CLR_RT_StackFrame4Arg1Ev
080636cc W _ZNK17CLR_RT_StackFrame4Arg2Ev
080636e8 W _ZNK17CLR_RT_StackFrame4Arg3Ev
08063704 W _ZNK17CLR_RT_StackFrame4Arg4Ev
08063720 W _ZNK17CLR_RT_StackFrame4Arg5Ev
080712d0 W _ZNK17CLR_RT_StackFrame4Arg6Ev
080712ec W _ZNK17CLR_RT_StackFrame4Arg7Ev
08048064 W _ZNK17CLR_RT_StackFrame4ArgNEi
08048010 W _ZNK17CLR_RT_StackFrame4ThisEv
08047ff8 W _ZNK17CLR_RT_StackFrame7ThisRefEv
0803b784 W _ZNK17HAL_DblLinkedListI16HAL_CONTINUATIONE14FirstValidNodeEv
0803b6ec W _ZNK17HAL_DblLinkedListI16HAL_CONTINUATIONE4HeadEv
0803b6d0 W _ZNK17HAL_DblLinkedListI16HAL_CONTINUATIONE4TailEv
0803b638 W _ZNK17HAL_DblLinkedListI16HAL_CONTINUATIONE7IsEmptyEv
0803b580 W _ZNK17HAL_DblLinkedListI16HAL_CONTINUATIONE9FirstNodeEv
08046a50 W _ZNK17HAL_DblLinkedListI16PalEventListenerE4HeadEv
08046a34 W _ZNK17HAL_DblLinkedListI16PalEventListenerE4TailEv
08028fe8 W _ZNK17HAL_DblLinkedListI18BlockStorageDeviceE14FirstValidNodeEv
08029048 W _ZNK17HAL_DblLinkedListI18BlockStorageDeviceE4HeadEv
0802902c W _ZNK17HAL_DblLinkedListI18BlockStorageDeviceE4TailEv
08028f30 W _ZNK17HAL_DblLinkedListI18BlockStorageDeviceE9FirstNodeEv
0803b598 W _ZNK17HAL_DblLinkedNodeI16HAL_CONTINUATIONE4NextEv
0803b76c W _ZNK17HAL_DblLinkedNodeI16HAL_CONTINUATIONE4PrevEv
0803b688 W _ZNK17HAL_DblLinkedNodeI16HAL_CONTINUATIONE8IsLinkedEv
08028f48 W _ZNK17HAL_DblLinkedNodeI18BlockStorageDeviceE4NextEv
08029014 W _ZNK17HAL_DblLinkedNodeI18BlockStorageDeviceE4PrevEv
08020ea0 W _ZNK18BlockStorageDevice10EraseBlockEj
08046ca8 W _ZNK18CLR_RECORD_TYPEDEF10IsDelegateEv
08020f30 W _ZNK18CLR_RECORD_TYPEDEF6IsEnumEv
0805ee80 T _ZNK19CLR_RECORD_ASSEMBLY10GoodHeaderEv
08046c6c W _ZNK19CLR_RECORD_ASSEMBLY11SizeOfTableE14CLR_TABLESENUM
0805ef10 T _ZNK19CLR_RECORD_ASSEMBLY12GoodAssemblyEv
08020484 W _ZNK19CLR_RECORD_ASSEMBLY9TotalSizeEv
08047b18 W _ZNK20CLR_RT_DblLinkedList13LastValidNodeEv
08047af0 W _ZNK20CLR_RT_DblLinkedList14FirstValidNodeEv
08025e00 W _ZNK20CLR_RT_DblLinkedList4HeadEv
08025e18 W _ZNK20CLR_RT_DblLinkedList4TailEv
08047ac8 W _ZNK20CLR_RT_DblLinkedList7IsEmptyEv
080214b8 W _ZNK20CLR_RT_DblLinkedList8LastNodeEv
080214a0 W _ZNK20CLR_RT_DblLinkedList9FirstNodeEv
08020fd0 W _ZNK20CLR_RT_TypeDef_Index4TypeEv
08020fb4 W _ZNK20CLR_RT_TypeDef_Index8AssemblyEv
08020f74 W _ZNK21CLR_RT_Assembly_Index8AssemblyEv
0802102c W _ZNK21CLR_RT_FieldDef_Index5FieldEv
08021010 W _ZNK21CLR_RT_FieldDef_Index8AssemblyEv
08021488 W _ZNK21CLR_RT_HeapBlock_Node4NextEv
08025d4c W _ZNK21CLR_RT_HeapBlock_Node4PrevEv
08046d0c W _ZNK21CLR_RT_TypeSpec_Index8AssemblyEv
08046d28 W _ZNK21CLR_RT_TypeSpec_Index8TypeSpecEv
08049d50 T _ZNK22CLR_RT_ExecutionEngine30UpdateToLowestExecutionCounterEP13CLR_RT_Thread
080484bc W _ZNK22CLR_RT_ExecutionEngine31ExecutionConstraintCompensation6AdjustEx
080210a0 W _ZNK22CLR_RT_MethodDef_Index6MethodEv
08021084 W _ZNK22CLR_RT_MethodDef_Index8AssemblyEv
08021510 W _ZNK22CLR_RT_SignatureParser9AvailableEv
080482c4 W _ZNK23CLR_RT_ExceptionHandler10IsCatchAllEv
080482e8 W _ZNK23CLR_RT_ExceptionHandler8IsFilterEv
0804830c W _ZNK23CLR_RT_ExceptionHandler9IsFinallyEv
0805e480 T _ZNK23CLR_RT_TypeDef_Instance12HasFinalizerEv
08021528 W _ZNK23CLR_RT_TypeDef_Instance14CrossReferenceEv
0802154c W _ZNK24CLR_RT_FieldDef_Instance14CrossReferenceEv
08026b04 W _ZNK25CLR_RT_HeapBlock_Delegate11DelegateFtnEv
08021570 W _ZNK25CLR_RT_MethodDef_Instance13DebuggingInfoEv
08047fbc W _ZNK25CLR_RT_MethodDef_Instance14CrossReferenceEv
0805d7f0 T _ZNK26CLR_RT_ReflectionDef_Index11GetTypeHashEv
08046da8 W _ZNK30CLR_RT_MethodDef_DebuggingInfo13HasBreakpointEv
08046d8c W _ZNK30CLR_RT_MethodDef_DebuggingInfo5IsJMCEv
08046de4 W _ZNK30CLR_RT_MethodDef_DebuggingInfo9IsFlagSetEh
08046d74 W _ZNK31CLR_RT_MethodDef_CrossReference8GetOwnerEv
0802767c T _ZNK39CLR_RT_HeapBlock_WeakReference_Identity10ComputeCRCEPKhj
08034b8c W _ZNK5RadioI7MessageI19IEEE802_15_4_HeaderLt95E19IEEE802_15_4_Footer21IEEE802_15_4_MetadataEE13IsInitializedEv
20007bf8 b _ZZ11TimeHandlerPvE16timeHandlerCount
0808c074 t _ZZ14CPU_Radio_SendhPvtE8__func__
0808bfc0 t _ZZ15CPU_Radio_ResethE8__func__
0808c0f8 t _ZZ15CPU_Radio_SleephhE8__func__
08093874 V _ZZ16CLR_TkFromStreamRPKhE8c_lookup
0808c1a8 t _ZZ17CPU_Radio_GetRSSIhE8__func__
20004f8c b _ZZ17USART1_IRQHandlerE3buf
20004f88 b _ZZ17USART1_IRQHandlerE3idx
0808c0d0 t _ZZ18CPU_Radio_TurnOnRxhE8__func__
0808c048 t _ZZ19CPU_Radio_SendRetryhE8__func__
0808c0e4 t _ZZ19CPU_Radio_TurnOffRxhE8__func__
0808c0a0 t _ZZ20CPU_Radio_EnableCSMAhE8__func__
0808bfe8 t _ZZ20CPU_Radio_GetAddresshE8__func__
0808c178 t _ZZ20CPU_Radio_GetChannelhE8__func__
0808c190 t _ZZ20CPU_Radio_GetTxPowerhE8__func__
0808bfa8 t _ZZ20CPU_Radio_InitializeP17RadioEventHandlerhhhE8__func__
0808c05c t _ZZ20CPU_Radio_SendStrobehtE8__func__
0808c000 t _ZZ20CPU_Radio_SetAddresshtE8__func__
0808c0b8 t _ZZ21CPU_Radio_DisableCSMAhE8__func__
0808c018 t _ZZ22CPU_Radio_GetRadioTypevE8__func__
0808c030 t _ZZ22CPU_Radio_SetRadioTypeaE8__func__
0808bfd0 t _ZZ22CPU_Radio_UnInitializehE8__func__
08093880 V _ZZ23CLR_UncompressTypeTokenjE8c_lookup
0808c120 t _ZZ23CPU_Radio_ChangeChannelhiE8__func__
0808c108 t _ZZ23CPU_Radio_ChangeTxPowerhiE8__func__
08093878 V _ZZ24CLR_UncompressFieldTokenjE8c_lookup
0809387c V _ZZ25CLR_UncompressMethodTokenjE8c_lookup
0808c084 t _ZZ26CPU_Radio_Send_TimeStampedhPvtjE8__func__
0808c138 t _ZZ31CPU_Radio_ClearChannelAssesmenthE8__func__
0808c158 t _ZZ31CPU_Radio_ClearChannelAssesmenthjE8__func__
20006ac0 b _ZZN10RF231Radio16Send_TimeStampedEPvtjE13busyRxCounter
200080bc b _ZZN10TimeDriver16DateTimeToStringERKxE8rgBuffer
2000803c b _ZZN10TimeDriver16TimeSpanToStringERKxE8rgBuffer
20003364 b _ZZN11CLR_RT_DUMP15GETERRORMESSAGEEiE5s_tmp
0809386c t _ZZN13CLR_RT_Random4NextEvE2IA
08093868 t _ZZN13CLR_RT_Random4NextEvE2IM
08093864 t _ZZN13CLR_RT_Random4NextEvE2IQ
08093860 t _ZZN13CLR_RT_Random4NextEvE2IR
0809385c t _ZZN13CLR_RT_Random4NextEvE4MASK
20008a2c b _ZZN15CLR_HW_Hardware15ProcessActivityEvE10lastStatus
08093870 t _ZZN15CLR_RT_Assembly9GetStringEtE4iMax
20008180 b _ZZN15Watchdog_Driver16WatchdogCallbackEPvE15iReentrantState
20002500 d _ZZN15Watchdog_Driver16WatchdogCallbackEPvE8lastTime
20003220 b _ZZN16CLR_DBG_Debugger12Monitor_PingEP10WP_MessagePvE16previousPingTime
20007bea b _ZZN16DiscoveryHandler4SendEtP7MessageI19IEEE802_15_4_HeaderLt95E19IEEE802_15_4_Footer21IEEE802_15_4_MetadataEtyE9seqNumber
200033f0 b _ZZN7csmaMAC15SendTimeStampedEthPvijE9seqNumber
200033f1 b _ZZN7csmaMAC4SendEthPviE9seqNumber
20006738 b _ZZN8OMACType20PrepareMessageBufferEthPviE9seqNumber
200032e0 b _ZZN9CLR_Debug4EmitEPKciE7s_chars
200032e4 b _ZZN9CLR_Debug4EmitEPKciE8s_buffer
08080634 T acos
08044574 T ADC_ClearITPendingBit
08044244 T ADC_Cmd
08044128 T ADC_DeInit
0804427c T ADC_DMACmd
08044520 T ADC_ExternalTrigConvCmd
08044324 T ADC_GetCalibrationStatus
08044558 T ADC_GetConversionValue
080442d4 T ADC_GetResetCalibrationStatus
0803ef08 T ADC_HAL_HANDLER
080441a0 T ADC_Init
200023e4 D ADC_MODULE
0804438c T ADC_RegularChannelConfig
080442b4 T ADC_ResetCalibration
08044354 T ADC_SoftwareStartConvCmd
08044304 T ADC_StartCalibration
0804346c T ADC1_2_IRQHandler
08043c84 T ADC3_IRQHandler
08077750 T ADCInteropCallback
20007c20 B adcNumSamples
2000238c d ADCPrescTable
0808bf28 t ADVTIMER_32BIT
2000237c d APBAHBPrescTable
20003444 B ArbiterP_Timing
0807fad8 T arm_bitreversal_q15
0807db8c T arm_cfft_radix4_init_q15
0807e0ac T arm_cfft_radix4_q15
0807e650 T arm_radix4_butterfly_inverse_q15
0807e10c T arm_radix4_butterfly_q15
08020000 T ARM_Vectors
08096f94 T armBitRevTable
0809a794 T armRecipTableQ15
080806dc T asin
0807fbd8 T atan
08080784 T atan2
0809a8b0 t atanhi
0809a890 t atanlo
20007c24 B batchModeADC
0809ab98 t blanks.6910
080391f0 T BootEntry
f1e0f85f a BootRAM
08035ef0 T BootstrapCode
0809a990 t bp
08084f44 T bsearch
00000000 a BUILD_RTM
00000000 a BUILD_RTM
00000000 a BUILD_RTM
0808d798 T c_CLR_radians
0808e2b0 T c_CLR_RT_DataTypeLookup
0808e8fc T c_CLR_RT_LogicalOpcodeLookup
0808e7d8 T c_CLR_RT_OpcodeLookup
0808ae68 T c_Debugger_Lookup_Reply
0808ae74 T c_Debugger_Lookup_Reply_count
0808aca0 T c_Debugger_Lookup_Request
0808ae70 T c_Debugger_Lookup_Request_count
2000245c D c_strGpioBadCallback
20002460 D c_strGpioBadPin
20002464 D c_strGpioBadSize
08043550 T CAN1_RX1_IRQHandler
0804359c T CAN1_SCE_IRQHandler
2000cc44 b CardType
0807ff10 T ceil
2000cc58 b CID_Tab
0807dc8c t clip_q31_to_q15
0807ccd4 t CmdError
0807cda0 t CmdResp1Error
0807cfa4 t CmdResp2Error
0807cf4c t CmdResp3Error
0807d014 t CmdResp6Error
0807cd20 t CmdResp7Error
00000001 a COMPILE_THUMB2
00000001 a COMPILE_THUMB2
00000001 a COMPILE_THUMB2
20002304 D CONTROL_BEACON_INTERVAL_SLOT
20002308 D CONTROL_P1
20002318 D CONTROL_P2
0807d7b8 t convert_from_bytes_to_power_of_two
08084f34 T copysign
08080020 T cos
08080788 T cosh
2000cc48 b CSD_Tab
2000cbc4 B CSMAInteropBuffer
200033e8 B csmaSendToRadioFailCount
20003399 B currentMacName
20003398 B currentRadioType
20017000 R CustomHeapBegin
20017ff8 R CustomHeapEnd
08079c8c T DAC_Cmd
08079c20 T DAC_Init
2000c968 B DAC_InitStructure
08079d48 T DAC_SetChannel1Data
08079ce8 T DAC_SoftwareTriggerCmd
08035f04 T DBGMCU_Config
080393ac T debug_printf
08042f54 T Default_Handler
2000cd10 B DestBuffer
2000cc6c b DeviceMode
200033ee B discoveryCounter
080448d0 T DMA_ClearFlag
08044904 T DMA_ClearITPendingBit
08044808 T DMA_Cmd
080445a0 T DMA_DeInit
0804487c T DMA_GetFlagStatus
0803ef28 T DMA_HAL_HANDLER
0804478c T DMA_Init
08044840 T DMA_ITConfig
08043258 T DMA1_Channel1_IRQHandler
080432a4 T DMA1_Channel2_IRQHandler
080432f0 T DMA1_Channel3_IRQHandler
0804333c T DMA1_Channel4_IRQHandler
08043388 T DMA1_Channel5_IRQHandler
080433d4 T DMA1_Channel6_IRQHandler
08043420 T DMA1_Channel7_IRQHandler
08043e98 T DMA2_Channel1_IRQHandler
08043ee4 T DMA2_Channel2_IRQHandler
08043f30 T DMA2_Channel3_IRQHandler
08043f7c T DMA2_Channel4_5_IRQHandler
20007c28 B dmaModeInitialized
0809a970 t dp_h
0809a980 t dp_l
20007c2c B dualADCMode
200023e0 D EMOTE_ADC_CHANNEL
080201f0 T EntryPoint
20006b38 B errno
08080848 T exp
080849c0 T expm1
080360d8 T EXTI_ClearITPendingBit
08036088 T EXTI_GetITStatus
08035f54 T EXTI_Init
08043fc8 T EXTI0_IRQHandler
08043104 T EXTI1_IRQHandler
08043a70 T EXTI15_10_IRQHandler
08043174 T EXTI2_IRQHandler
080431c0 T EXTI3_IRQHandler
0804320c T EXTI4_IRQHandler
080435e8 T EXTI9_5_IRQHandler
20002484 D EXTILines
080800b0 T fabs
080281d8 T Fault_Handler_Display
0807d51c t FindSCR
08084e2c T finite
08036214 T FLASH_ErasePage
08036324 T FLASH_GetBank1Status
08036388 T FLASH_GetBank2Status
08036138 T FLASH_HalfCycleAccessCmd
0804305c T FLASH_IRQHandler
0803617c T FLASH_PrefetchBufferCmd
080360f8 T FLASH_SetLatency
080361c0 T FLASH_Unlock
080363ec T FLASH_WaitForLastBank1Operation
08036430 T FLASH_WaitForLastBank2Operation
080800b8 T floor
08080940 T fmod
08043cd0 T FSMC_IRQHandler
08044a74 T FSMC_NORSRAMCmd
08044938 T FSMC_NORSRAMInit
2000cb80 B g_adcContext
20007c18 B g_adcDriverBufferChannel1Ptr
20007c1c B g_adcDriverBufferDualModePtr
20007c10 B g_adcUserBufferChannel1Ptr
20007c14 B g_adcUserBufferChannel2Ptr
20008198 B g_buildCRC
20007c04 B g_callback
08096e3c T g_CLR_AssemblyNative_ADC
08096a24 T g_CLR_AssemblyNative_CSMACallback
08096a58 T g_CLR_AssemblyNative_MACCallback
08094d08 T g_CLR_AssemblyNative_Microsoft_SPOT_EventSink_DriverProcs
08094cf0 T g_CLR_AssemblyNative_Microsoft_SPOT_Hardware
08095488 T g_CLR_AssemblyNative_Microsoft_SPOT_Hardware_OneWire
08095254 T g_CLR_AssemblyNative_Microsoft_SPOT_Hardware_SerialPort
08095298 T g_CLR_AssemblyNative_Microsoft_SPOT_Hardware_UsartError
08095274 T g_CLR_AssemblyNative_Microsoft_SPOT_Hardware_UsartEvent
08094a08 T g_CLR_AssemblyNative_Microsoft_SPOT_Native
08093894 T g_CLR_AssemblyNative_mscorlib
08096a40 T g_CLR_AssemblyNative_OMACCallback
08096a08 T g_CLR_AssemblyNative_RadioCallback_802_15_4
0808c9fc T g_CLR_AssemblyNative_RealTimeInteropTimer
08096ce0 T g_CLR_AssemblyNative_Samraksh_eMote_DotNow
08096ef4 T g_CLR_AssemblyNative_Samraksh_eMote_DSP
080969e4 T g_CLR_AssemblyNative_Samraksh_eMote_Net
0808c9d8 T g_CLR_AssemblyNative_Samraksh_eMote_RealTime
08096e94 T g_CLR_AssemblyNative_SD
2000891c B g_CLR_DBG_Debuggers
20008828 B g_CLR_HW_Hardware
20002520 D g_CLR_InteropAssembliesNativeData
200032dc B g_CLR_Messaging
200085ec B g_CLR_RT_EventCache
200081a0 B g_CLR_RT_ExecutionEngine
20008a20 B g_CLR_RT_fBadStack
200087e0 B g_CLR_RT_GarbageCollector
20008920 B g_CLR_RT_Persistence_Manager
200084dc B g_CLR_RT_TypeSystem
200084d4 B g_CLR_RT_WellKnownMethods
20008360 B g_CLR_RT_WellKnownTypes
080ff000 R g_ConfigurationSector
0808cdc0 t g_CountOfHardwareTimers
0808d198 t g_CountOfHardwareTimers
0808d2df t g_CountOfHardwareTimers
0808cf71 t g_CountOfHardwareTimers
0808bf0b t g_CountOfHardwareTimers
0808d720 t g_CountOfHardwareTimers
0808cdf8 t g_CountOfHardwareTimers
0808c671 t g_CountOfHardwareTimers
0808c4df t g_CountOfHardwareTimers
0808cb7a t g_CountOfHardwareTimers
0808ca08 t g_CountOfHardwareTimers
0808c7d4 t g_CountOfHardwareTimers
200033a8 B g_csmaMacObject
200022f8 D g_DebuggerPortSslConfig
2000340c B g_Event_Callback
20003410 B g_Event_Callback_Arg
20003418 B g_Events_BoolTimerCompletion
20006b94 B g_fDoNotUninitializeDebuggerPort
20007ba8 B g_HAL_Completion_List
20007bb4 B g_HAL_Continuation_List
0808cdfc t g_HardwareTimerIDs
0808c4e0 t g_HardwareTimerIDs
0808cf74 t g_HardwareTimerIDs
0808c674 t g_HardwareTimerIDs
0808cb7c t g_HardwareTimerIDs
0808d19c t g_HardwareTimerIDs
0808ca0c t g_HardwareTimerIDs
0808bf0c t g_HardwareTimerIDs
0808d2e0 t g_HardwareTimerIDs
0808cdc4 t g_HardwareTimerIDs
0808c7d8 t g_HardwareTimerIDs
0808d724 t g_HardwareTimerIDs
20007c30 B g_I2C_Driver
2000cc94 B g_LCD_PCF85162_Driver
20003c90 B g_NeighborTable
20004fa0 B g_OMAC
20008184 B g_palEventDriver
2000386c B g_receive_buffer
20008860 B g_scratchDebugger
20008868 B g_scratchDebuggerMessaging
2000b45c B g_scratchInlineBuffer
2000bd60 B g_scratchInterruptDispatchingStorage
20003228 B g_scratchMessaging
20009c58 B g_scratchVirtualMethodPayload
20008a48 B g_scratchVirtualMethodTableLink
20009450 B g_scratchVirtualMethodTableLinkMRU
2000cb98 B g_sdContext
2000cbac B g_SDIODriver
20003448 B g_send_buffer
20004d20 B g_STM32F10x_AdvancedTimer
20007fd4 B g_STM32F10x_i2c_driver
20004d80 B g_STM32F10x_RTC
20004d40 B g_STM32F10x_Timer_Configuration
20007bec B g_Time_Driver
20008010 B g_TimeDriver
20004da4 B g_Timer16Bit_Driver
0808d726 t g_VirtualTimerPerHardwareTimer
0808c4e2 t g_VirtualTimerPerHardwareTimer
0808d19e t g_VirtualTimerPerHardwareTimer
0808c676 t g_VirtualTimerPerHardwareTimer
0808ca0e t g_VirtualTimerPerHardwareTimer
0808cf76 t g_VirtualTimerPerHardwareTimer
0808bf0e t g_VirtualTimerPerHardwareTimer
0808c7da t g_VirtualTimerPerHardwareTimer
0808cdfe t g_VirtualTimerPerHardwareTimer
0808cdc6 t g_VirtualTimerPerHardwareTimer
0808cb7e t g_VirtualTimerPerHardwareTimer
0808d2e2 t g_VirtualTimerPerHardwareTimer
20008150 B g_Watchdog_Driver
2000cc80 B glcdObject
20007ffc B gNORDriver
08040268 T GPIO_ConfigurePinC
08036780 T GPIO_EXTILineConfig
08036474 T GPIO_Init
0803668c T GPIO_PinRemapConfig
20002468 D GPIO_PORT_ARRAY
080365f4 T GPIO_ReadInputDataBit
08036628 T GPIO_ReadOutputDataBit
0803665c T GPIO_WriteBit
20006760 B grf231Radio
20006910 B grf231RadioLR
20007688 B gVirtualTimerObject
0802c31c T HAL_Time_CurrentTicks
200075b8 B Hal_Usart_State
0809a930 t halF
0808c200 T HalName
2000232c D HalSystemConfig
20004f5c B HALTimerHandlerFPN
0802823c T HARD_Breakpoint
08028248 T HARD_Breakpoint_Handler
08042e50 T HardFault_Handler
08042b94 T HardFault_HandlerC
2000cd80 R HeapBegin
20016ff8 R HeapEnd
20008a08 B i
200024dc D I2C_BUS_ARRAY
08044e44 T I2C_CheckEvent
08044ea4 T I2C_ClearFlag
08044c9c T I2C_Cmd
08044ac8 T I2C_DeInit
08040d84 T I2C_Error_Handler
08040978 T I2C_Event_Handler
08044cdc T I2C_GenerateSTART
08044d1c T I2C_GenerateSTOP
08044b10 T I2C_Init
08044d5c T I2C_ITConfig
08044dc4 T I2C_Send7bitAddress
08044da4 T I2C_SendData
08044e00 T I2C_SoftwareResetCmd
0804385c T I2C1_ER_IRQHandler
08043810 T I2C1_EV_IRQHandler
080438f4 T I2C2_ER_IRQHandler
080438a8 T I2C2_EV_IRQHandler
0008b74c A Image$$ER_FLASH$$Length
20002008 A Image$$ER_RAM_RO$$Base
00000000 A Image$$ER_RAM_RO$$Length
20002010 D Image$$ER_RAM_RW$$Base
0000ad6c A Image$$ER_RAM_RW$$Length
20003110 B Image$$ER_RAM_RW$$ZI$$Base
00009c6c A Image$$ER_RAM_RW$$ZI$$Length
20002890 d impure_data
0809ab28 t init_jk
20006ad0 B interrupt
0807d304 t IsCardProgramming
20002424 D isErased
08035d44 T JTAG_Attached
0803941c T lcd_printf
20002cbc d lconv
0809a950 t ln2HI
0809a940 t ln2LO
08020000 T Load$$ER_FLASH$$Base
080ab750 A Load$$ER_RAM_RO$$Base
080ab750 A Load$$ER_RAM_RW$$Base
20006b4c B LOAD_IMAGE_CalcCRC
20006b48 B LOAD_IMAGE_Length
20006b44 B LOAD_IMAGE_Start
080809f4 T log
08080af4 T log10
2000cbc0 B MacID
         U malloc
200071b4 B ManagedCodeRxBuffer_Com
08078aa4 T ManagedSDCallback
20006b0c B ManagedTimerDueTimeMicroSeconds
20006b14 B ManagedTimerMicrosecs
20006b08 B ManagedTimerPeriodMicroSeconds
20006b10 B ManagedTimerTicks
08084e38 T matherr
20006b28 B maxMicroseconds
20006b20 B maxTicks
080880b8 T memchr
08084ff0 T memcmp
08085054 T memcpy
08085140 T memmove
08085208 T memset
08080260 T modf
08084e3c T nan
2000cb70 B Net_ne_Context
2000cb78 B Net_ne_userData
0809a9a0 t npio2_hw
2000cc7c B NumberOfBytes
0803f6d4 T NVIC_Init
0803f6ac T NVIC_PriorityGroupConfig
0802e0c0 t NVIC_SystemReset
20004f94 B OEM_Model_SKU
0809acc0 t p05.5302
200024fc D pCoreDebug
08042ecc T PendSV_Handler
200024f4 D pInterruptType
0809ab38 t PIo2
200024f0 D pITM
00000001 a PLATFORM_ARM_EmoteDotNow
00000001 a PLATFORM_ARM_EmoteDotNow
00000001 a PLATFORM_ARM_EmoteDotNow
00000001 a PLATFORM_ARM_STM32F10x
00000001 a PLATFORM_ARM_STM32F10x
00000001 a PLATFORM_ARM_STM32F10x
200024f8 D pMPU
200024e4 D pNVIC
08080bf4 T pow
0802034c T PrepareImageRegions
08054d1c T private_free
08054d00 T private_malloc
200024e8 D pSCB
200024ec D pSysTick
08042f70 T PVD_IRQHandler
08036820 T PWR_BackupAccessCmd
08036840 T PWR_EnterSTANDBYMode
08086bd4 t quorem
200033ec B RadioLockUp
2000cc68 b RCA
08036af8 T RCC_ADCCLKConfig
08036930 T RCC_AdjustHSICalibrationValue
08036db4 T RCC_AHBPeriphClockCmd
08036e54 T RCC_APB1PeriphClockCmd
08036ef4 T RCC_APB1PeriphResetCmd
08036e04 T RCC_APB2PeriphClockCmd
08036ea4 T RCC_APB2PeriphResetCmd
08036894 T RCC_DeInit
08036bf8 T RCC_GetClocksFreq
08036f44 T RCC_GetFlagStatus
08036a18 T RCC_GetSYSCLKSource
08036a38 T RCC_HCLKConfig
080430b0 T RCC_IRQHandler
08036b38 T RCC_LSEConfig
08036b8c T RCC_LSICmd
08036a78 T RCC_PCLK1Config
08036ab8 T RCC_PCLK2Config
080369b8 T RCC_PLLCmd
08036974 T RCC_PLLConfig
08036bd8 T RCC_RTCCLKCmd
08036bac T RCC_RTCCLKConfig
080369d8 T RCC_SYSCLKConfig
20006b18 B RealTimeCount
20006b04 B RealTimeTimerMicrosecs
20006b00 B RealTimeTimerTicks
08080ee4 T remainder
08080324 T rint
080371b8 T RTC_ClearFlag
080371ec T RTC_ClearITPendingBit
08037028 T RTC_EnterConfigMode
08037050 T RTC_ExitConfigMode
08037078 T RTC_GetCounter
0803717c T RTC_GetFlagStatus
08043010 T RTC_IRQHandler
08036fc8 T RTC_ITConfig
080370e4 T RTC_SetAlarm
080370ac T RTC_SetPrescaler
08037118 T RTC_WaitForLastTask
0803713c T RTC_WaitForSynchro
08043abc T RTCAlarm_IRQHandler
20006fb4 B RxBuffer_Com
20008a28 B s_CLR_RT_fTrace_AssemblyOverhead
20002508 D s_CLR_RT_fTrace_Errors
2000250c D s_CLR_RT_fTrace_Exceptions
20008a24 B s_CLR_RT_fTrace_MemoryStats
20008a14 B s_CLR_RT_Heap
20002518 D s_TickMask
20002510 D s_UTCMask
00000001 a SAM_APP_TINYCLR
00000001 a SAM_APP_TINYCLR
00000001 a SAM_APP_TINYCLR
20017000 a SAM_CUSTOM_HEAP_BEGIN
20017000 a SAM_CUSTOM_HEAP_BEGIN
20017000 a SAM_CUSTOM_HEAP_BEGIN
20017ff8 a SAM_CUSTOM_HEAP_END
20017ff8 a SAM_CUSTOM_HEAP_END
20017ff8 a SAM_CUSTOM_HEAP_END
2000f5ac a SAM_HEAP_BEGIN
2000f5ac a SAM_HEAP_BEGIN
2000f5ac a SAM_HEAP_BEGIN
20016ff8 a SAM_HEAP_END
20016ff8 a SAM_HEAP_END
20016ff8 a SAM_HEAP_END
20017f00 a SAM_PROFILER_BUFFER_BEGIN
20017f00 a SAM_PROFILER_BUFFER_BEGIN
20017f00 a SAM_PROFILER_BUFFER_BEGIN
20017ff8 a SAM_PROFILER_BUFFER_END
20017ff8 a SAM_PROFILER_BUFFER_END
20017ff8 a SAM_PROFILER_BUFFER_END
20000000 a SAM_STACK_BOTTOM
20000000 a SAM_STACK_BOTTOM
20000000 a SAM_STACK_BOTTOM
20002000 a SAM_STACK_TOP
20002000 a SAM_STACK_TOP
20002000 a SAM_STACK_TOP
08084e48 T scalbn
0807b19c T SD_DMAEndOfTransferStatus
0807bebc T SD_EnableWideBusOperation
0807cabc T SD_Erase
0807b878 T SD_GetCardInfo
0807b0b0 T SD_Init
0807b638 T SD_InitializeCards
0807b214 T SD_LowLevel_DMA_RxConfig
0807b298 T SD_LowLevel_DMA_TxConfig
0807b1b4 T SD_LowLevel_Init
0807b31c T SD_PowerON
0807c0a4 T SD_ReadBlock
0807c038 T SD_SelectDeselect
0807bff8 T SD_SetDeviceMode
0807c4bc T SD_WriteBlock
2000cd18 B SDCardInfo
0807d0ec t SDEnWideBus
0807db4c T SDIO_ClearFlag
0807db6c T SDIO_ClearITPendingBit
0807d8cc T SDIO_ClockCmd
2000cd68 B SDIO_CmdInitStructure
0807da68 T SDIO_DataConfig
2000ccf8 B SDIO_DataInitStructure
0807d7e8 T SDIO_DeInit
0807d99c T SDIO_DMACmd
0807da20 T SDIO_GetCommandResponse
0807db14 T SDIO_GetFlagStatus
0807d930 T SDIO_GetPowerState
0807da3c T SDIO_GetResponse
0807d868 T SDIO_Init
2000cce0 B SDIO_InitStructure
08043d1c T SDIO_IRQHandler
0807d94c T SDIO_ITConfig
0807dad8 T SDIO_ReadData
0807d9bc T SDIO_SendCommand
0807d8ec T SDIO_SetPowerState
0807daf4 T SDIO_WriteData
2000caec B SerialNum
08084fe0 T setlocale
08080444 T sin
08080f88 T sinh
08028264 T SOFT_Breakpoint
08037320 T SPI_Cmd
08037220 T SPI_I2S_DeInit
080373d8 T SPI_I2S_GetFlagStatus
0803737c T SPI_I2S_ReceiveData
08037360 T SPI_I2S_SendData
08037298 T SPI_Init
20007ff8 B SPI_Initialized
20007fe0 B SPI_InitStructure
20007ff4 B SPI_mod
08037398 T SPI_SSOutputCmd
08043940 T SPI1_IRQHandler
0804398c T SPI2_IRQHandler
08043db4 T SPI3_IRQHandler
08081048 T sqrt
2000cd14 B SrcBuffer
20000000 R StackBottom
20002000 R StackTop
200023d4 D STM32F10x_blConfig_ExternalFlash_NOR
200023ac D STM32F10x_blConfig_InternalFlash
200023b8 D STM32F10x_BlockDeviceInfo_ExternalFlash_NOR
20002390 D STM32F10x_BlockDeviceInfo_InternalFlash
20007bd0 B STM32F10x_BlockStorageDevice_ExternalFlash_NOR
20007bc0 B STM32F10x_BlockStorageDevice_InternalFlash
20002428 D STM32F10x_IBlockStorageDevice_ExternalFlash_NOR
200023f0 D STM32F10x_IBlockStorageDevice_InternalFlash
2000cc74 b StopCondition
080852a4 T strchr
08085370 T strcmp
0808552c T strcpy
08088774 T strlen
080855e8 T strncpy
20002328 D strUfoRadio
08042e78 T SVC_Handler
20003408 B SystemEvents
080394b4 T SystemState_ClearNoLock
08039520 T SystemState_QueryNoLock
08039444 T SystemState_SetNoLock
20006b98 B SystemStates
08042f38 T SysTick_Handler
08042fc4 T TAMPER_IRQHandler
080804d8 T tan
08080538 T tanh
00000001 a TARGETLOCATION_FLASH
00000001 a TARGETLOCATION_FLASH
00000001 a TARGETLOCATION_FLASH
08037aa0 T TIM_ARRPreloadConfig
08037cc0 T TIM_ClearFlag
08037d34 T TIM_ClearITPendingBit
0803799c T TIM_Cmd
08037410 T TIM_DeInit
08037a24 T TIM_GenerateEvent
08037c6c T TIM_GetCounter
08037c88 T TIM_GetFlagStatus
08037ce0 T TIM_GetITStatus
0803f054 T TIM_HAL_HANDLER
080379dc T TIM_ITConfig
08037774 T TIM_OC1Init
08037ae0 T TIM_OC1PreloadConfig
08037894 T TIM_OC4Init
08037b18 T TIM_OC4PreloadConfig
08037a40 T TIM_PrescalerConfig
08037a68 T TIM_SelectInputTrigger
08037bfc T TIM_SelectMasterSlaveMode
08037b54 T TIM_SelectOnePulseMode
08037b8c T TIM_SelectOutputTrigger
08037bc4 T TIM_SelectSlaveMode
08037c34 T TIM_SetCompare1
08037c50 T TIM_SetCompare3
0803765c T TIM_TimeBaseInit
08037968 T TIM_TimeBaseStructInit
08043634 T TIM1_BRK_IRQHandler
08043718 T TIM1_CC_IRQHandler
080436cc T TIM1_TRG_COM_IRQHandler
08043680 T TIM1_UP_IRQHandler
08044014 T TIM2_IRQHandler
08043778 T TIM3_IRQHandler
080437c4 T TIM4_IRQHandler
08043d68 T TIM5_IRQHandler
08043e00 T TIM6_IRQHandler
08043e4c T TIM7_IRQHandler
08043b54 T TIM8_BRK_IRQHandler
08043c38 T TIM8_CC_IRQHandler
0808bf29 t TIMER1_16BIT
0808bf2a t TIMER2_16BIT
080ab748 T TinyClr_Dat_End
0809acf8 T TinyClr_Dat_Start
2000cc70 b TotalNumberOfBytes
2000cc78 B TransferEnd
20002888 D TransferError
08097794 T twiddleCoefQ15
0809aa20 t two_over_pi
0809a8d0 t TWO52
20006bb4 B TxBuffer_Com
080381d8 T USART_ClearITPendingBit
08037fd4 T USART_Cmd
08037d54 T USART_DeInit
080380e8 T USART_GetFlagStatus
08038120 T USART_GetITStatus
08037e14 T USART_Init
20004f60 B USART_IT
08038014 T USART_ITConfig
080380c8 T USART_ReceiveData
080380a4 T USART_SendData
08037f9c T USART_StructInit
08030018 T USART1_IRQHandler
080439d8 T USART2_IRQHandler
08043a24 T USART3_IRQHandler
08043ba0 T USART4_IRQHandler
08043bec T USART5_IRQHandler
080434b8 T USB_HP_CAN1_TX_IRQHandler
08043504 T USB_LP_CAN1_RX0_IRQHandler
08043b08 T USBWakeUp_IRQHandler
2000c980 B utilcrc16
2000c9a0 B utilcrc8
08020208 T VectorRelocate
080856c0 T vsnprintf
2000813c B vtCallbackContinuation
0809a960 t Zero
0809ab88 t zeroes.6911
